ccopy_reg
_reconstructor
p1
(cpta
PTA
p2
c__builtin__
object
p3
NtRp4
(dp5
S'psrlist'
p6
(lp7
g1
(cpulsar
Pulsar
p8
g3
NtRp9
(dp10
S'dm'
p11
F20.946279000000001
sS'w50'
p12
F150.68814201799654
sS'dist'
p13
F0.69640000000000002
sS'name'
p14
S'J0605+3757'
p15
sS'taud'
p16
F0.060340000000000012
sS's_1000'
p17
F0.83096476660590535
sS'uscale'
p18
F5.1338812830100915
sS'period'
p19
F0.0027279541573215337
sS'dtd'
p20
F371.89999999999998
sS'weff'
p21
F452.3658965742157
sS'sig_j_single'
p22
F94.93352947133782
sS'dnud'
p23
F0.0030599999999999998
sS'dec'
p24
F37.959986699583347
sS'spindex'
p25
F-1.7575325430182809
sS'sigmas'
p26
(dp27
S'GBT_Rcvr_800-Rcvr_1_2_logain'
p28
(dp29
S'sigma_tot'
p30
cnumpy.core.multiarray
scalar
p31
(cnumpy
dtype
p32
(S'f8'
I0
I1
tRp33
(I3
S'<'
NNNI-1
I-1
I0
tbS"'\xc5\x98\x181\xd6\xeb?"
tRp34
sS'sigma_white'
p35
g31
(g33
S'\xb0\xc9\xd97\x99\x12\xd5?'
tRp36
sS'sigma_tel'
p37
g31
(g33
S'\xadT\xb2\n\xe7#\x89?'
tRp38
sS'sigma_rn'
p39
g31
(g33
S'\xf2R\x96\xa3\xa9\xb2\xd3?'
tRp40
sS'sigma_dm'
p41
g31
(g33
S':\xd0rr{\xd5\xeb?'
tRp42
ssS'AO_Lwide_Swide_logain'
p43
(dp44
g30
g31
(g33
S'l\x19\x00\xd8\tr\xcc?'
tRp45
sg35
g31
(g33
S'\xd8\xf9\xfc\xd8#5\xc2?'
tRp46
sg37
g31
(g33
S'\xadT\xb2\n\xe7#\x89?'
tRp47
sg39
g31
(g33
S'\xe4\xb9\x8b\x0c\xaf\xbe\xb4?'
tRp48
sg41
g31
(g33
S'\x0cc\x1d\xa1\xebf\xcc?'
tRp49
ssS'GBT_Rcvr_1_2_VLAS_logain'
p50
(dp51
g30
g31
(g33
S'\xd5\x83D\xd1\x12\xbb\xcb?'
tRp52
sg35
g31
(g33
S'\xc8\xb1\xf9X\x95w\xc5?'
tRp53
sg37
g31
(g33
S'F\xd8\xb3\xadO\x8b\x87?'
tRp54
sg39
g31
(g33
S'\xa2g$\xd8\xc6\xca\xbe?'
tRp55
sg41
g31
(g33
S'E\x85\x0bV\x12\xb1\xcb?'
tRp56
ssS'AO_430_Lwide_logain'
p57
(dp58
g30
g31
(g33
S'\xf2\x04\x19\rk\x80\xea?'
tRp59
sg35
g31
(g33
S'\xce\xdc\x07w\x94\xb8\xd0?'
tRp60
sg37
g31
(g33
S'\xadT\xb2\n\xe7#\x89?'
tRp61
sg39
g31
(g33
S'\xe6Om\x9du\xe3\xcd?'
tRp62
sg41
g31
(g33
S'\x13\r\x18@\xac\x7f\xea?'
tRp63
sssbag1
(g8
g3
NtRp64
(dp65
g11
F15.348572003298266
sg12
F263.34729683567599
sg13
F0.83020000000000005
sg14
S'J1312+0051'
p66
sg16
F0.023040000000000001
sg17
F0.66027995133607009
sg18
F4.6372519916128656
sg19
F0.0042280189916582504
sg20
F657.10000000000002
sg21
F696.29666585477537
sg22
F165.90879700647585
sg23
F0.0080129999999999993
sg24
F0.85003241944444441
sg25
F-1.3445662175368971
sg26
(dp67
S'GBT_Rcvr_800-Rcvr_1_2_logain'
p68
(dp69
g30
g31
(g33
S'z?K\xb6p\x9a\xff?'
tRp70
sg35
g31
(g33
S'\xa2\\\xab\xe6\x9b\x84\xea?'
tRp71
sg37
g31
(g33
S'T\xe5a9\x11\x9e\x90?'
tRp72
sg39
g31
(g33
S'\xa9\xdb\t+\x17=\xe9?'
tRp73
sg41
g31
(g33
S'\x18h4\xcf*\x9a\xff?'
tRp74
ssS'AO_Lwide_Swide_logain'
p75
(dp76
g30
g31
(g33
S'\x8ei\xf9\x884\x9a\xe2?'
tRp77
sg35
g31
(g33
S'kQ\xf7\xe4\xc8\xac\xd5?'
tRp78
sg37
g31
(g33
S'T\xe5a9\x11\x9e\x90?'
tRp79
sg39
g31
(g33
S'px\x0e1\xee\xa1\xcc?'
tRp80
sg41
g31
(g33
S'q-\x83lY\x98\xe2?'
tRp81
ssS'GBT_Rcvr_1_2_VLAS_logain'
p82
(dp83
g30
g31
(g33
S'\x12\xaa\xdf\xce~ \xe5?'
tRp84
sg35
g31
(g33
S'\xa3\xa6V\x9f\x90F\xde?'
tRp85
sg37
g31
(g33
S'\xfe\x10\xe9-\xfc\x1f\x8f?'
tRp86
sg39
g31
(g33
S'~!\xb6\x04\xb2\x87\xd9?'
tRp87
sg41
g31
(g33
S'\x90y\xb5\xec\x0f\x1f\xe5?'
tRp88
ssS'AO_430_Lwide_logain'
p89
(dp90
g30
g31
(g33
S'YI\x8b\xf1y/\xf9?'
tRp91
sg35
g31
(g33
S'\xaca\xc6\x89>j\xe4?'
tRp92
sg37
g31
(g33
S'T\xe5a9\x11\x9e\x90?'
tRp93
sg39
g31
(g33
S'\xc0\x12\x00\x16\x16\xb9\xe2?'
tRp94
sg41
g31
(g33
S'\xf8\x14):"/\xf9?'
tRp95
sssbag1
(g8
g3
NtRp96
(dp97
g11
F53.662658999999998
sg12
F168.53479201849208
sg13
F3.3151999999999999
sg14
S'J2022+2534'
p98
sg16
F0.1414
sg17
F1.6166136126113233
sg18
F4.3652709271807684
sg19
F0.0026459357676189852
sg20
F530
sg21
F386.22079965318505
sg22
F106.17691897165001
sg23
F0.0013050000000000002
sg24
F25.578472309166671
sg25
F-1.9105663360356759
sg26
(dp99
S'GBT_Rcvr_800-Rcvr_1_2_logain'
p100
(dp101
g30
g31
(g33
S"O\x1aP\xa9N'\xde?"
tRp102
sg35
g31
(g33
S'\x07/3\xeb-z\xc9?'
tRp103
sg37
g31
(g33
S'\xc7i\x8fM[\x96\x8a?'
tRp104
sg39
g31
(g33
S'0\xf2\xc8q\xe8a\xc3?'
tRp105
sg41
g31
(g33
S'c\xc5\xb5X`$\xde?'
tRp106
ssS'AO_Lwide_Swide_logain'
p107
(dp108
g30
g31
(g33
S'-J\xf5\x00\xd40\xc4?'
tRp109
sg35
g31
(g33
S'\xee<\xc0\xea\x835\xc1?'
tRp110
sg37
g31
(g33
S'\xc7i\x8fM[\x96\x8a?'
tRp111
sg39
g31
(g33
S'*\x94}\xac\x97\x9b\xa3?'
tRp112
sg41
g31
(g33
S'\x1f\xc62\x0eK\x1f\xc4?'
tRp113
ssS'GBT_Rcvr_1_2_VLAS_logain'
p114
(dp115
g30
g31
(g33
S'\x1f\x0c:\xa3T\x81\xc3?'
tRp116
sg35
g31
(g33
S'c)%\xb6\x90\xcc\xc1?'
tRp117
sg37
g31
(g33
S':\xbeS$?\xe6\x88?'
tRp118
sg39
g31
(g33
S'\xdb\xc7G.\x11\xe7\xaa?'
tRp119
sg41
g31
(g33
S'\xf6\xef\x03\x9diq\xc3?'
tRp120
ssS'AO_430_Lwide_logain'
p121
(dp122
g30
g31
(g33
S'\x90\xadwM\x92\xae\xde?'
tRp123
sg35
g31
(g33
S'\xfb\xd0\xa5\x7f\xffR\xc6?'
tRp124
sg37
g31
(g33
S'\xc7i\x8fM[\x96\x8a?'
tRp125
sg39
g31
(g33
S'\x9eO\xf7\x00\xb4\xa4\xbd?'
tRp126
sg41
g31
(g33
S'E\xb7\xec\xe9\xb0\xab\xde?'
tRp127
sssbag1
(g8
g3
NtRp128
(dp129
g11
F30.570177000000001
sg12
F124.52392745723749
sg13
F2.0507
sg14
S'J1853+1303'
p130
sg16
F0.037089999999999998
sg17
F0.87828344332723218
sg18
F4.6817123958160085
sg19
F0.0040917973833788203
sg20
F814
sg21
F345.86988790004943
sg22
F62.782813470532119
sg23
F0.0049779999999999998
sg24
F13.06255081725492
sg25
F-1.9874501203397166
sg26
(dp131
S'GBT_Rcvr_800-Rcvr_1_2_logain'
p132
(dp133
g30
g31
(g33
S'\xa3\x0bM\xfdf\x0b\xe8?'
tRp134
sg35
g31
(g33
S'V1\x8f$O>\xd0?'
tRp135
sg37
g31
(g33
S'\r\xc6\xb3\x83\x8b\xda\x86?'
tRp136
sg39
g31
(g33
S'\xb4\xe0\xca\x8b=#\xce?'
tRp137
sg41
g31
(g33
S'\x1d\xc4\x8e4\xb9\n\xe8?'
tRp138
ssS'AO_Lwide_Swide_logain'
p139
(dp140
g30
g31
(g33
S'\xd0M^\xf9\x8c:\xc5?'
tRp141
sg35
g31
(g33
S'%\xc8\xc3n\x10S\xbc?'
tRp142
sg37
g31
(g33
S'\r\xc6\xb3\x83\x8b\xda\x86?'
tRp143
sg39
g31
(g33
S'i\xbe\xee!\xbfL\xad?'
tRp144
sg41
g31
(g33
S'M\xd5\xf35<.\xc5?'
tRp145
ssS'GBT_Rcvr_1_2_VLAS_logain'
p146
(dp147
g30
g31
(g33
S'n\x02\x9a\t\xe7A\xc3?'
tRp148
sg35
g31
(g33
S'=\xe2\xc9\xdb\n\xda\xbe?'
tRp149
sg37
g31
(g33
S'9\x1bX\xa9\x1dg\x85?'
tRp150
sg39
g31
(g33
S'\xe5N=\xfe\x10\x18\xb3?'
tRp151
sg41
g31
(g33
S'\xc7wI\x99\xfe5\xc3?'
tRp152
ssS'AO_430_Lwide_logain'
p153
(dp154
g30
g31
(g33
S'\xb4^\x84\x87\x0c\xac\xe8?'
tRp155
sg35
g31
(g33
S'F\x06\x12\xc6"\x19\xca?'
tRp156
sg37
g31
(g33
S'\r\xc6\xb3\x83\x8b\xda\x86?'
tRp157
sg39
g31
(g33
S'\xbcb\n\xb3[\x1a\xc7?'
tRp158
sg41
g31
(g33
S'2Us*c\xab\xe8?'
tRp159
sssbag1
(g8
g3
NtRp160
(dp161
g11
F44.262385999999999
sg12
F876.03646563932557
sg13
F1.7890999999999999
sg14
S'J0709+0458'
p162
sg16
F0.17330000000000001
sg17
F0.41977054504786288
sg18
F7.8520278957051426
sg19
F0.0344289781773107
sg20
F351.69999999999999
sg21
F2834.0084473060901
sg22
F551.90297335277512
sg23
F0.001065
sg24
F4.9809625675555536
sg25
F-0.80656653162941916
sg26
(dp163
S'GBT_Rcvr_800-Rcvr_1_2_logain'
p164
(dp165
g30
g31
(g33
S'\x81\xf3SV\xb37!@'
tRp166
sg35
g31
(g33
S'@p\xdaD\xd4\xef\x11@'
tRp167
sg37
g31
(g33
S'5\xac\xd9T\xeaN\x9e?'
tRp168
sg39
g31
(g33
S'\xfde\x10Q\xb4;\x0e@'
tRp169
sg41
g31
(g33
S'T\xcd\x0f\xab\xac7!@'
tRp170
ssS'AO_Lwide_Swide_logain'
p171
(dp172
g30
g31
(g33
S'\x97\xd8/]\xec\x8a\r@'
tRp173
sg35
g31
(g33
S'\x01=\x97\xc5fi\x05@'
tRp174
sg37
g31
(g33
S'5\xac\xd9T\xeaN\x9e?'
tRp175
sg39
g31
(g33
S'\x9c\x1d!\x8f\xca\x80\xf2?'
tRp176
sg41
g31
(g33
S'\xadJ\xf5,\xae\x8a\r@'
tRp177
ssS'GBT_Rcvr_1_2_VLAS_logain'
p178
(dp179
g30
g31
(g33
S'\x16[\xd1{\x8e/\x13@'
tRp180
sg35
g31
(g33
S'M\x8b\xfe\xb2\xa5\xd6\x0b@'
tRp181
sg37
g31
(g33
S"\x9d\xfb'\xbbTb\x9c?"
tRp182
sg39
g31
(g33
S'\x86\x07\t\x18|\r\x04@'
tRp183
sg41
g31
(g33
S' 2\xbd|y/\x13@'
tRp184
ssS'AO_430_Lwide_logain'
p185
(dp186
g30
g31
(g33
S'\x8c\xe3\xf7Zi\x8f\x16@'
tRp187
sg35
g31
(g33
S'\x91\x02\xfb\xe2=-\r@'
tRp188
sg37
g31
(g33
S'5\xac\xd9T\xeaN\x9e?'
tRp189
sg39
g31
(g33
S'\n\x9b\xf0\x11@\xdf\x05@'
tRp190
sg41
g31
(g33
S'\xe2\xbd\x1d\xffT\x8f\x16@'
tRp191
sssbag1
(g8
g3
NtRp192
(dp193
g11
F22.162662000000001
sg12
F247.20921649341858
sg13
F1.0238
sg14
S'J2010-1323'
p194
sg16
F0.039580000000000004
sg17
F1.2221193682065479
sg18
F6.9540731185862068
sg19
F0.0052232710167467965
sg20
F556.70000000000005
sg21
F528.18768602427588
sg22
F60.163066482482002
sg23
F0.0046639999999999997
sg24
F-13.397984012969143
sg25
F-1.5314704376495545
sg26
(dp195
S'GBT_Rcvr_800-Rcvr_1_2_logain'
p196
(dp197
g30
g31
(g33
S'_4\x8f)f.\xe1?'
tRp198
sg35
g31
(g33
S'\xaf\xbdf\xf1\xe9\xc4\xcc?'
tRp199
sg37
g31
(g33
S'A,0,\xa9\x19\x90?'
tRp200
sg39
g31
(g33
S'r\xc3\xdf\x83\xd7\x98\xc9?'
tRp201
sg41
g31
(g33
S'\x92\xc0YD\x83,\xe1?'
tRp202
ssS'AO_Lwide_Swide_logain'
p203
(dp204
g30
g31
(g33
S'\x02\xf7\x1e#?\t\xc5?'
tRp205
sg35
g31
(g33
S'd\xe6\xf7\xb9\xdb\xc2\xbd?'
tRp206
sg37
g31
(g33
S'A,0,\xa9\x19\x90?'
tRp207
sg39
g31
(g33
S'\x0eZ\xb4i\xe1\x0b\xac?'
tRp208
sg41
g31
(g33
S'g\xd39\x83\x8b\xf0\xc4?'
tRp209
ssS'GBT_Rcvr_1_2_VLAS_logain'
p210
(dp211
g30
g31
(g33
S'\xb0\x06\xb7t\x0e\xe4\xc5?'
tRp212
sg35
g31
(g33
S'\xa8\x04\x87\xb5-v\xc1?'
tRp213
sg37
g31
(g33
S"\x9d\xd4-\xf1\xfb'\x8e?"
tRp214
sg39
g31
(g33
S'>\xe2\x85\xde5\x0c\xb7?'
tRp215
sg41
g31
(g33
S"\x01`\x1c'?\xcf\xc5?"
tRp216
ssS'AO_430_Lwide_logain'
p217
(dp218
g30
g31
(g33
S'\xe8\xcbZ\xd1=\x89\xde?'
tRp219
sg35
g31
(g33
S'\xaa\xd7\x86,t=\xc7?'
tRp220
sg37
g31
(g33
S'A,0,\xa9\x19\x90?'
tRp221
sg39
g31
(g33
S'\x15\x00q\x0b\x97*\xc3?'
tRp222
sg41
g31
(g33
S'\xe4\xbc\xc8\xf1\xfe\x84\xde?'
tRp223
sssbag1
(g8
g3
NtRp224
(dp225
g11
F6.4862669999999998
sg12
F141.24097798963683
sg13
F0.3856
sg14
S'J1024-0719'
p226
sg16
F0.00101
sg17
F2.0047881960551881
sg18
F4.4190700554635276
sg19
F0.005162204562260601
sg20
F2139
sg21
F575.88449119777613
sg22
F33.874356638965075
sg23
F0.1827
sg24
F-7.3223148816927646
sg25
F-1.0249925793307926
sg26
(dp227
S'GBT_Rcvr_800-Rcvr_1_2_logain'
p228
(dp229
g30
g31
(g33
S'\x0c\x0e+\xb2<\xcc\xe2?'
tRp230
sg35
g31
(g33
S'\xb6\xb6*-O\xdc\xd0?'
tRp231
sg37
g31
(g33
S'V0\xf6\x8a\xe4V\x88?'
tRp232
sg39
g31
(g33
S'c%=7\xbct\xd0?'
tRp233
sg41
g31
(g33
S'6\tf\x8d@\xcb\xe2?'
tRp234
ssS'AO_Lwide_Swide_logain'
p235
(dp236
g30
g31
(g33
S'A}\x99\x16\xea\x87\xc8?'
tRp237
sg35
g31
(g33
S'\x0f\xbe\xc3n\xaa\x89\xb8?'
tRp238
sg37
g31
(g33
S'V0\xf6\x8a\xe4V\x88?'
tRp239
sg39
g31
(g33
S'\xf8\x9b\xb2\xfck\xa8\xb3?'
tRp240
sg41
g31
(g33
S'\xdf\x9b\xe3\xfb\xd3{\xc8?'
tRp241
ssS'GBT_Rcvr_1_2_VLAS_logain'
p242
(dp243
g30
g31
(g33
S'\x86J\xf2\x14P6\xd0?'
tRp244
sg35
g31
(g33
S'\x93\\\xb3c\xd0)\xc5?'
tRp245
sg37
g31
(g33
S'\x88C\x9f\x18Q\xcb\x86?'
tRp246
sg39
g31
(g33
S' m7\xafB\xd9\xc3?'
tRp247
sg41
g31
(g33
S'9g\x94\x08N2\xd0?'
tRp248
ssS'AO_430_Lwide_logain'
p249
(dp250
g30
g31
(g33
S'\xd04\xaa\xa5\x98\xeb\xd8?'
tRp251
sg35
g31
(g33
S'\x15=\x10\xd9\xe1(\xc9?'
tRp252
sg37
g31
(g33
S'V0\xf6\x8a\xe4V\x88?'
tRp253
sg39
g31
(g33
S'I\x80\x06&x\x10\xc8?'
tRp254
sg41
g31
(g33
S'\x07jQ\xc3\x9f\xe8\xd8?'
tRp255
sssbag1
(g8
g3
NtRp256
(dp257
g11
F17.452258
sg12
F185.95354582639808
sg13
F1.1207
sg14
S'J1630+3550'
p258
sg16
F0.029919999999999999
sg17
F0.33255619311608409
sg18
F4.242963364606144
sg19
F0.0032291562865483076
sg20
F669.89999999999998
sg21
F588.0339916069139
sg22
F117.15073387063082
sg23
F0.0061700000000000001
sg24
F35.845116772805561
sg25
F-2.3662384794904607
sg26
(dp259
S'GBT_Rcvr_800-Rcvr_1_2_logain'
p260
(dp261
g30
g31
(g33
S'#\x80\x9c\xc6\xa1/\x07@'
tRp262
sg35
g31
(g33
S'"\x81[\xd0\xc6\x0f\xed?'
tRp263
sg37
g31
(g33
S'\xc9\xbds)q\xed\x8b?'
tRp264
sg39
g31
(g33
S'\x9anM\xc9\xd6\x9f\xec?'
tRp265
sg41
g31
(g33
S'?!\xda\xf4\x90/\x07@'
tRp266
ssS'AO_Lwide_Swide_logain'
p267
(dp268
g30
g31
(g33
S'g\xf2\x8c9\xbb\xe8\xe0?'
tRp269
sg35
g31
(g33
S'\x83\xcc\xe4[\x80\xd2\xd0?'
tRp270
sg37
g31
(g33
S'\xc9\xbds)q\xed\x8b?'
tRp271
sg39
g31
(g33
S'\xf9\x1c\xcd\xcb\xa8\xfd\xca?'
tRp272
sg41
g31
(g33
S'\x01\x839(J\xe7\xe0?'
tRp273
ssS'GBT_Rcvr_1_2_VLAS_logain'
p274
(dp275
g30
g31
(g33
S'\xab\r!\xfa\xeeR\xda?'
tRp276
sg35
g31
(g33
S'F\x1e\xe8q\xe9\n\xd2?'
tRp277
sg37
g31
(g33
S"c\xa2`\x03\x8d'\x8a?"
tRp278
sg39
g31
(g33
S'&\x87N\x07\xac\xfa\xcd?'
tRp279
sg41
g31
(g33
S'\xb7 {8\xafO\xda?'
tRp280
ssS'AO_430_Lwide_logain'
p281
(dp282
g30
g31
(g33
S'z\xb3\xc0\xdf=\xe6\x07@'
tRp283
sg35
g31
(g33
S'P\xd1\xb0P\xac&\xe7?'
tRp284
sg37
g31
(g33
S'\xc9\xbds)q\xed\x8b?'
tRp285
sg39
g31
(g33
S'\xce\xb9\x0b\xcbz\x99\xe6?'
tRp286
sg41
g31
(g33
S'V\x02\x82\x8e-\xe6\x07@'
tRp287
sssbag1
(g8
g3
NtRp288
(dp289
g11
F36.774428999999998
sg12
F292.30248848890147
sg13
F1.2099
sg14
S'J1719-1438'
p290
sg16
F0.20910000000000001
sg17
F1.7335598291858898
sg18
F5.6165095200234338
sg19
F0.0057901516802464003
sg20
F263.30000000000001
sg21
F811.8275579144597
sg22
F184.150567748008
sg23
F0.00088309999999999984
sg24
F-14.633595000000001
sg25
F-1.8508144926164265
sg26
(dp291
S'GBT_Rcvr_800-Rcvr_1_2_logain'
p292
(dp293
g30
g31
(g33
S'K\xc7\xc5\xde\x99\xb4\xe9?'
tRp294
sg35
g31
(g33
S' \x9e\xac\xc5^A\xda?'
tRp295
sg37
g31
(g33
S'\x11\x7f?\x97\xd6\x81\x91?'
tRp296
sg39
g31
(g33
S'\xfa\xfaQ\x88\xd0$\xcf?'
tRp297
sg41
g31
(g33
S'<\x97\xb4E\x1c\xb3\xe9?'
tRp298
ssS'AO_Lwide_Swide_logain'
p299
(dp300
g30
g31
(g33
S'n\xcf3\x7f#\x1c\xd7?'
tRp301
sg35
g31
(g33
S'N\x1a\xb6rg\x80\xd5?'
tRp302
sg37
g31
(g33
S'\x11\x7f?\x97\xd6\x81\x91?'
tRp303
sg39
g31
(g33
S'\xdf\x98Y)gs\xaf?'
tRp304
sg41
g31
(g33
S'K\xf2\x1a\xe9\x80\x15\xd7?'
tRp305
ssS'GBT_Rcvr_1_2_VLAS_logain'
p306
(dp307
g30
g31
(g33
S'*\x9d\xe0\xea\x0b\xc9\xd6?'
tRp308
sg35
g31
(g33
S']\xcb\x00\xb1\xf8\xd7\xd5?'
tRp309
sg37
g31
(g33
S'l\xb8 \x9dMe\x90?'
tRp310
sg39
g31
(g33
S'\x90\xbdA\x01-\x07\xb6?'
tRp311
sg41
g31
(g33
S'\xae_\x1c\x05%\xc3\xd6?'
tRp312
ssS'AO_430_Lwide_logain'
p313
(dp314
g30
g31
(g33
S'\x95F\xe8\xbc%*\xea?'
tRp315
sg35
g31
(g33
S'\xa1\x19L~\x17>\xd8?'
tRp316
sg37
g31
(g33
S'\x11\x7f?\x97\xd6\x81\x91?'
tRp317
sg39
g31
(g33
S'\xab\x13\xd4\xb1\xbd\xb0\xc7?'
tRp318
sg41
g31
(g33
S'_z\x92\xd6\xae(\xea?'
tRp319
sssbag1
(g8
g3
NtRp320
(dp321
g11
F20.670000000000002
sg12
F158.69274711970502
sg13
F1.0530999999999999
sg14
S'J2150-0326'
p322
sg16
F0.033360000000000001
sg17
F0.90967292537925337
sg18
F5.7607359582795823
sg19
F0.003510702855893541
sg20
F615.10000000000002
sg21
F439.15647628544963
sg22
F99.976430685414158
sg23
F0.005535
sg24
F-3.4424381650833338
sg25
F-1.900005227060352
sg26
(dp323
S'GBT_Rcvr_800-Rcvr_1_2_logain'
p324
(dp325
g30
g31
(g33
S'vu%\xc5.\x07\xe5?'
tRp326
sg35
g31
(g33
S'\x1a\xe7\x8d\xe8[\xe8\xd0?'
tRp327
sg37
g31
(g33
S'|?\xa7#\xa1\xcc\x89?'
tRp328
sg39
g31
(g33
S'\xc3L\xae/\xc9\xb3\xcc?'
tRp329
sg41
g31
(g33
S'\x16\xa3g\x851\x06\xe5?'
tRp330
ssS'AO_Lwide_Swide_logain'
p331
(dp332
g30
g31
(g33
S'\x86\xc2\xe9#\xf3\xeb\xc8?'
tRp333
sg35
g31
(g33
S'\xbc2`=\x82Z\xc3?'
tRp334
sg37
g31
(g33
S'|?\xa7#\xa1\xcc\x89?'
tRp335
sg39
g31
(g33
S'LGs\xd2\x1d\xae\xad?'
tRp336
sg41
g31
(g33
S'\xdb\xa6\xb8\xf1\x94\xde\xc8?'
tRp337
ssS'GBT_Rcvr_1_2_VLAS_logain'
p338
(dp339
g30
g31
(g33
S'\x88\xc4\x1d;\xa0\xde\xc7?'
tRp340
sg35
g31
(g33
S'\x0f=\xcd\xfd\xf2\xa6\xc4?'
tRp341
sg37
g31
(g33
S'\x80_\x8b\x8bS)\x88?'
tRp342
sg39
g31
(g33
S'\xa1JQ\xda\xb3\xb2\xb4?'
tRp343
sg41
g31
(g33
S'\xb1\x1fR\x9fb\xd2\xc7?'
tRp344
ssS'AO_430_Lwide_logain'
p345
(dp346
g30
g31
(g33
S'\xca)\xedJ\x01<\xe4?'
tRp347
sg35
g31
(g33
S'\xac\xf2\x93\x85\x1eX\xcc?'
tRp348
sg37
g31
(g33
S'|?\xa7#\xa1\xcc\x89?'
tRp349
sg39
g31
(g33
S'\xfa{\xa2\xdeR\xfd\xc5?'
tRp350
sg41
g31
(g33
S'>\xf0\xc3\x1b\xfa:\xe4?'
tRp351
sssbag1
(g8
g3
NtRp352
(dp353
g11
F14.963860999999998
sg12
F133.16946187290279
sg13
F0.68000000000000005
sg14
S'J0740+6620'
p354
sg16
F0.018800000000000001
sg17
F1.6192462148591555
sg18
F2.4963442872290056
sg19
F0.002885736410850217
sg20
F658.39999999999998
sg21
F272.23708034696523
sg22
F30.685359730650678
sg23
F0.0098209999999999999
sg24
F66.344244659949993
sg25
F-1.3735401138410881
sg26
(dp355
S'GBT_Rcvr_800-Rcvr_1_2_logain'
p356
(dp357
g30
g31
(g33
S'\x9b\x83( \xff\x8f\xe2?'
tRp358
sg35
g31
(g33
S'\rE\xe8\x14\x1b\xf9\xcd?'
tRp359
sg37
g31
(g33
S'\xfd\x83\xac%<\xa2\x87?'
tRp360
sg39
g31
(g33
S'N\x9d8\xc6U\x8e\xcd?'
tRp361
sg41
g31
(g33
S'b\xec\xdb`\x0e\x8f\xe2?'
tRp362
ssS'AO_Lwide_Swide_logain'
p363
(dp364
g30
g31
(g33
S'\x8c\xaa\x80\x00)$\xc4?'
tRp365
sg35
g31
(g33
S'{\x88\x7f\xfejl\xb3?'
tRp366
sg37
g31
(g33
S'\xfd\x83\xac%<\xa2\x87?'
tRp367
sg39
g31
(g33
S'1XM\xb6g\xad\xb0?'
tRp368
sg41
g31
(g33
S'wW\x9c\x8bF\x16\xc4?'
tRp369
ssS'GBT_Rcvr_1_2_VLAS_logain'
p370
(dp371
g30
g31
(g33
S'\rl$ D\xf7\xc6?'
tRp372
sg35
g31
(g33
S'w\x9a\x16\x0f\x01\x04\xbf?'
tRp373
sg37
g31
(g33
S'~\xd4\\\xd6 "\x86?'
tRp374
sg39
g31
(g33
S'\xcb\x9e%S\x84`\xbd?'
tRp375
sg41
g31
(g33
S'%T1I\x97\xec\xc6?'
tRp376
ssS'AO_430_Lwide_logain'
p377
(dp378
g30
g31
(g33
S'<Y\xbe.\x0e\n\xde?'
tRp379
sg35
g31
(g33
S'\xb0\x15r\xec\x14\x84\xc6?'
tRp380
sg37
g31
(g33
S'\xfd\x83\xac%<\xa2\x87?'
tRp381
sg39
g31
(g33
S'\x8e\xb4\x0f7\xc3\xf4\xc5?'
tRp382
sg41
g31
(g33
S'\x0b\x12\xe4\x14\xbb\x07\xde?'
tRp383
sssbag1
(g8
g3
NtRp384
(dp385
g11
F41.488202000000001
sg12
F351.61038784046667
sg13
F1.8754
sg14
S'J0931-1902'
p386
sg16
F0.14510000000000001
sg17
F1.4278762817163129
sg18
F3.2273186496104644
sg19
F0.0046380293913442228
sg20
F393.5
sg21
F413.34542312574541
sg22
F93.945283686744858
sg23
F0.0012719999999999999
sg24
F-19.049518775376484
sg25
F-1.5767767801081007
sg26
(dp387
S'GBT_Rcvr_800-Rcvr_1_2_logain'
p388
(dp389
g30
g31
(g33
S'K\x8aJ\n\xb0\xed\xe7?'
tRp390
sg35
g31
(g33
S'\xe5\xb8\r"eG\xd4?'
tRp391
sg37
g31
(g33
S'\x0bHM\xe5\x883\x93?'
tRp392
sg39
g31
(g33
S'Y\x95@\xc5\xcc\xd3\xd1?'
tRp393
sg41
g31
(g33
S')\x15\xf9\xe7\xc2\xeb\xe7?'
tRp394
ssS'AO_Lwide_Swide_logain'
p395
(dp396
g30
g31
(g33
S'\x8e\xd9\xa6\xf8\x00\xea\xcd?'
tRp397
sg35
g31
(g33
S'p\xd3h\x9e\xda\xa3\xc5?'
tRp398
sg37
g31
(g33
S'\x0bHM\xe5\x883\x93?'
tRp399
sg39
g31
(g33
S'W~\xde\x00\xa2\x86\xb3?'
tRp400
sg41
g31
(g33
S'\xcb\tYeP\xd1\xcd?'
tRp401
ssS'GBT_Rcvr_1_2_VLAS_logain'
p402
(dp403
g30
g31
(g33
S'u\x80\xd2\x95\xa1\xc1\xce?'
tRp404
sg35
g31
(g33
S'\xb3`6;\x10\xf1\xc8?'
tRp405
sg37
g31
(g33
S'Ts\x9dFw\xfb\x91?'
tRp406
sg39
g31
(g33
S'b\xb8\x0bR\xf0\x95\xbf?'
tRp407
sg41
g31
(g33
S'\r\x1fx_\x93\xac\xce?'
tRp408
ssS'AO_430_Lwide_logain'
p409
(dp410
g30
g31
(g33
S'ac\x8f\xe4\xa6^\xe5?'
tRp411
sg35
g31
(g33
S'\x14\x10\xcb\x13>\x90\xd0?'
tRp412
sg37
g31
(g33
S'\x0bHM\xe5\x883\x93?'
tRp413
sg39
g31
(g33
S'\xb5&S_\xc2\xcc\xca?'
tRp414
sg41
g31
(g33
S'\x13\xd0\xce\xb0~\\\xe5?'
tRp415
sssbag1
(g8
g3
NtRp416
(dp417
g11
F24.353580999999998
sg12
F364.48275530218172
sg13
F1.7906
sg14
S'J1944+0907'
p418
sg16
F0.01745
sg17
F3.7187584529019397
sg18
F2.1155604834353481
sg19
F0.0051852019093387046
sg20
F1109
sg21
F949.93244783429839
sg22
F251.11463412086059
sg23
F0.010579999999999999
sg24
F9.1232080735658823
sg25
F-2.0590506443873782
sg26
(dp419
S'GBT_Rcvr_800-Rcvr_1_2_logain'
p420
(dp421
g30
g31
(g33
S'9z\xba\x8e#\x84\xf1?'
tRp422
sg35
g31
(g33
S'\xd6X_TP\x08\xe1?'
tRp423
sg37
g31
(g33
S'\xe1V\x11G\xb4\x8c\x93?'
tRp424
sg39
g31
(g33
S'\x90\xd3\xbc,\xa6g\xd4?'
tRp425
sg41
g31
(g33
S'\xb2\xa1\xb6\xfdt\x83\xf1?'
tRp426
ssS'AO_Lwide_Swide_logain'
p427
(dp428
g30
g31
(g33
S'l?RL\xba\xb8\xdd?'
tRp429
sg35
g31
(g33
S'9\xdas5,\xb9\xdb?'
tRp430
sg37
g31
(g33
S'\xe1V\x11G\xb4\x8c\x93?'
tRp431
sg39
g31
(g33
S'\xa90\x89\xb7+\xd0\xb3?'
tRp432
sg41
g31
(g33
S'\x05j\xbc\xa8K\xb2\xdd?'
tRp433
ssS'GBT_Rcvr_1_2_VLAS_logain'
p434
(dp435
g30
g31
(g33
S'\xb2\x16_\xe2\xb9\x05\xdd?'
tRp436
sg35
g31
(g33
S'\xc7\x8c\xc1\xa9\xcd\xfd\xdb?'
tRp437
sg37
g31
(g33
S'\x95p\xdcn\xf9N\x92?'
tRp438
sg39
g31
(g33
S'F\x10$\xc1\xec!\xb9?'
tRp439
sg41
g31
(g33
S'\xbc\xfe#\xf1\xf2\xff\xdc?'
tRp440
ssS'AO_430_Lwide_logain'
p441
(dp442
g30
g31
(g33
S'v\x90\xb6oQ\xf0\xf1?'
tRp443
sg35
g31
(g33
S'\x1aL\xd7\xff\x93}\xdf?'
tRp444
sg37
g31
(g33
S'\xe1V\x11G\xb4\x8c\x93?'
tRp445
sg39
g31
(g33
S'-\x942\x1d$x\xcf?'
tRp446
sg41
g31
(g33
S'\xf7q\x92\xfb\xa6\xef\xf1?'
tRp447
sssbag1
(g8
g3
NtRp448
(dp449
g11
F3.1383580000000002
sg12
F136.84880675664036
sg13
F0.41460000000000002
sg14
S'J1744-1134'
p450
sg16
F0.00011730000000000001
sg17
F3.5734525385909715
sg18
F5.9754857579619287
sg19
F0.0040745458788739109
sg20
F6508
sg21
F511.54159458098633
sg22
F42.030660157471964
sg23
F1.5740000000000001
sg24
F-11.581730006162687
sg25
F-1.8001570043493795
sg26
(dp451
S'GBT_Rcvr_800-Rcvr_1_2_logain'
p452
(dp453
g30
g31
(g33
S'i\x9a"qU\xec\xcd?'
tRp454
sg35
g31
(g33
S'\x9bP\xbd\x9b\xcc\xe7\xb8?'
tRp455
sg37
g31
(g33
S'\xaen\xa4\x1f?\xf5\x87?'
tRp456
sg39
g31
(g33
S'\xc9%?\xef,\xed\xb2?'
tRp457
sg41
g31
(g33
S'\xcfpb\x9c\xbc\xe2\xcd?'
tRp458
ssS'AO_Lwide_Swide_logain'
p459
(dp460
g30
g31
(g33
S'\xd6UY\n\xbb\xe4\xb3?'
tRp461
sg35
g31
(g33
S'\x1d\x1a\x8a\x81\xaa\xde\xb0?'
tRp462
sg37
g31
(g33
S'\xaen\xa4\x1f?\xf5\x87?'
tRp463
sg39
g31
(g33
S'/\xa2gwG\xfb\x92?'
tRp464
sg41
g31
(g33
S'\xcfZ\xab\xac\xb1\xaa\xb3?'
tRp465
ssS'GBT_Rcvr_1_2_VLAS_logain'
p466
(dp467
g30
g31
(g33
S'\xb3\xfe\xcc\xeb\xe3j\xb3?'
tRp468
sg35
g31
(g33
S'y\x9d\xb5\xc1Q\x89\xb1?'
tRp469
sg37
g31
(g33
S'\xf1]N\xab\xdeo\x86?'
tRp470
sg39
g31
(g33
S'\x14@\xf3\xa4\xcb\xf7\x9a?'
tRp471
sg41
g31
(g33
S'\xf3\xd1G\xdc\xc36\xb3?'
tRp472
ssS'AO_430_Lwide_logain'
p473
(dp474
g30
g31
(g33
S'\xc6[\xeaJ\x81U\xce?'
tRp475
sg35
g31
(g33
S'\xe1\xf0\xect\xf3\x9d\xb5?'
tRp476
sg37
g31
(g33
S'\xaen\xa4\x1f?\xf5\x87?'
tRp477
sg39
g31
(g33
S',U\xdd\xdd\xb7\xa6\xac?'
tRp478
sg41
g31
(g33
S'\xc7\xe1\xbb\xc6\tL\xce?'
tRp479
sssbag1
(g8
g3
NtRp480
(dp481
g11
F49.371856000000001
sg12
F72.249413776831631
sg13
F1.7398
sg14
S'J0406+3039'
p482
sg16
F0.26519999999999999
sg17
F0.92802698906728442
sg18
F5.2845253626863204
sg19
F0.0026086540397240602
sg20
F280.39999999999998
sg21
F359.34321526122039
sg22
F45.517130679403934
sg23
F0.00069620000000000012
sg24
F30.660334599812369
sg25
F-1.4486320163469146
sg26
(dp483
S'GBT_Rcvr_800-Rcvr_1_2_logain'
p484
(dp485
g30
g31
(g33
S'U\xfc\x14\xd54*\xe4?'
tRp486
sg35
g31
(g33
S'\xda\xd5\x90t\xb9\xf1\xcf?'
tRp487
sg37
g31
(g33
S'P.F\x0fnh\x81?'
tRp488
sg39
g31
(g33
S'\xe1\x9e=FX)\xcf?'
tRp489
sg41
g31
(g33
S'\xf6*\x81\x9a\xbc)\xe4?'
tRp490
ssS'AO_Lwide_Swide_logain'
p491
(dp492
g30
g31
(g33
S'\xe2\xc3B\xba\x89\x92\xc5?'
tRp493
sg35
g31
(g33
S'\x96\x11\x8f\t\x15V\xb6?'
tRp494
sg37
g31
(g33
S'P.F\x0fnh\x81?'
tRp495
sg39
g31
(g33
S'5\xb3-RKZ\xb1?'
tRp496
sg41
g31
(g33
S'N\xb9v\x84\x82\x8b\xc5?'
tRp497
ssS'GBT_Rcvr_1_2_VLAS_logain'
p498
(dp499
g30
g31
(g33
S'\xa7L/u\xd9\x8c\xc7?'
tRp500
sg35
g31
(g33
S'\xbd\x0el\x14\x18a\xc0?'
tRp501
sg37
g31
(g33
S'n\x14\xe7\x07\x82M\x80?'
tRp502
sg39
g31
(g33
S'\x04\xf2\xf1\n\x8d\x99\xbd?'
tRp503
sg41
g31
(g33
S'\xff\xdc~64\x87\xc7?'
tRp504
ssS'AO_430_Lwide_logain'
p505
(dp506
g30
g31
(g33
S'\xdc\xa7\x86H=\x8f\xe3?'
tRp507
sg35
g31
(g33
S'\xef\xe1\xefl6Y\xc8?'
tRp508
sg37
g31
(g33
S'P.F\x0fnh\x81?'
tRp509
sg39
g31
(g33
S'W\xd5\xf0\x15\xb7<\xc7?'
tRp510
sg41
g31
(g33
S'Z\xe9MU\xc1\x8e\xe3?'
tRp511
sssbag1
(g8
g3
NtRp512
(dp513
g11
F24.198833999999998
sg12
F86.282486553236623
sg13
F0.87429999999999997
sg14
S'J1741+1351'
p514
sg16
F0.0038649999999999999
sg17
F0.56416463469590017
sg18
F5.1285180540494277
sg19
F0.0037471545002598686
sg20
F1646
sg21
F390.46895297479415
sg22
F41.52461802532298
sg23
F0.04777
sg24
F13.862994954322845
sg25
F-2.0820633472072601
sg26
(dp515
S'GBT_Rcvr_800-Rcvr_1_2_logain'
p516
(dp517
g30
g31
(g33
S'\xb6\x8df\x0e\xc5\x06\xf1?'
tRp518
sg35
g31
(g33
S'\xa2\xa8\x87n\xa7?\xd6?'
tRp519
sg37
g31
(g33
S'\xf7z|\x8d\x06\x06\x83?'
tRp520
sg39
g31
(g33
S'q\x813\xeck\xea\xd5?'
tRp521
sg41
g31
(g33
S'|B\xb2\x8b\x9a\x06\xf1?'
tRp522
ssS'AO_Lwide_Swide_logain'
p523
(dp524
g30
g31
(g33
S'\x86\x03\xe5\xb5\xbc\x8c\xca?'
tRp525
sg35
g31
(g33
S'\x1b\x0fyl\xafk\xba?'
tRp526
sg37
g31
(g33
S'\xf7z|\x8d\x06\x06\x83?'
tRp527
sg39
g31
(g33
S'\x8b\xbc\x1b\xd2E\x83\xb5?'
tRp528
sg41
g31
(g33
S'\x1b\xd4\xf3\x16\xeb\x85\xca?'
tRp529
ssS'GBT_Rcvr_1_2_VLAS_logain'
p530
(dp531
g30
g31
(g33
S'\xab\x11Ru\xa4\x9d\xc6?'
tRp532
sg35
g31
(g33
S'ma.\xc0|?\xbf?'
tRp533
sg37
g31
(g33
S'g\xf5\xbd\x91\xd8\xd0\x81?'
tRp534
sg39
g31
(g33
S'r8`R\x8f9\xbb?'
tRp535
sg41
g31
(g33
S'v\xd2\x7f\xf1\x9e\x96\xc6?'
tRp536
ssS'AO_430_Lwide_logain'
p537
(dp538
g30
g31
(g33
S'\x05\x07\xe8#\xeci\xf1?'
tRp539
sg35
g31
(g33
S'\xces\xb4\xbf\ta\xd1?'
tRp540
sg37
g31
(g33
S'\xf7z|\x8d\x06\x06\x83?'
tRp541
sg39
g31
(g33
S'\x00Z\x1e\x85b\xf3\xd0?'
tRp542
sg41
g31
(g33
S'|VC\x93\xc2i\xf1?'
tRp543
sssbag1
(g8
g3
NtRp544
(dp545
g11
F30.245999999999999
sg12
F209.39762006778969
sg13
F1.153
sg14
S'J0751+1807'
p546
sg16
F0.08864000000000001
sg17
F1.5510571142552965
sg18
F4.7266097703093584
sg19
F0.003478770839279425
sg20
F394.80000000000001
sg21
F568.45687712934171
sg22
F131.92050064270754
sg23
F0.0020829999999999998
sg24
F18.127357333333329
sg25
F-0.99436641697706285
sg26
(dp547
S'GBT_Rcvr_800-Rcvr_1_2_logain'
p548
(dp549
g30
g31
(g33
S'L^\x07\xbb/\x89\xe7?'
tRp550
sg35
g31
(g33
S'{\xe8\x01S\x1f:\xd7?'
tRp551
sg37
g31
(g33
S'\x86i\x1b\x11\xc0\xa2\x8d?'
tRp552
sg39
g31
(g33
S'Y\x9d=\x12\xee\t\xd4?'
tRp553
sg41
g31
(g33
S'x\xc1f+\x05\x88\xe7?'
tRp554
ssS'AO_Lwide_Swide_logain'
p555
(dp556
g30
g31
(g33
S'M\xb1\xdb\xb0\r\x80\xd2?'
tRp557
sg35
g31
(g33
S'\x830\xfc\x94v\\\xca?'
tRp558
sg37
g31
(g33
S'\x86i\x1b\x11\xc0\xa2\x8d?'
tRp559
sg39
g31
(g33
S'0U4\xd9H\xf6\xb7?'
tRp560
sg41
g31
(g33
S'\xe1\x8d\x9f\x92\x1dz\xd2?'
tRp561
ssS'GBT_Rcvr_1_2_VLAS_logain'
p562
(dp563
g30
g31
(g33
S'{\r0\x8e\xbc\xc4\xd6?'
tRp564
sg35
g31
(g33
S'\xe8\xeb\xb7g4\xf0\xd0?'
tRp565
sg37
g31
(g33
S'\x1d\xb8l\x93\x18\xc1\x8b?'
tRp566
sg39
g31
(g33
S'\xc0\x7fJG\x0cl\xc8?'
tRp567
sg41
g31
(g33
S'\xca\x8f5\x8b\x81\xc0\xd6?'
tRp568
ssS'AO_430_Lwide_logain'
p569
(dp570
g30
g31
(g33
S'WsR\x15\xef\xd5\xe0?'
tRp571
sg35
g31
(g33
S"\xa9'OH\x07\xc5\xd2?"
tRp572
sg37
g31
(g33
S'\x86i\x1b\x11\xc0\xa2\x8d?'
tRp573
sg39
g31
(g33
S'f\xf3\xb0\xb1\x13=\xcd?'
tRp574
sg41
g31
(g33
S'g\x19\xd4\xa9M\xd4\xe0?'
tRp575
sssbag1
(g8
g3
NtRp576
(dp577
g11
F44.672663
sg12
F939.4737475784907
sg13
F1.6552
sg14
S'J0732+2314'
p578
sg16
F0.2084
sg17
F1.3061538009893252
sg18
F3.2559684790134216
sg19
F0.004090137082364601
sg20
F308.5
sg21
F653.77617812612607
sg22
F591.86846097444925
sg23
F0.00088580000000000017
sg24
F23.24836882213889
sg25
F-1.4200512498657012
sg26
(dp579
S'GBT_Rcvr_800-Rcvr_1_2_logain'
p580
(dp581
g30
g31
(g33
S'\x1cDR\xbfZQ\xf9?'
tRp582
sg35
g31
(g33
S'\x91\x0fM\xe0Y|\xf0?'
tRp583
sg37
g31
(g33
S'n\xee\xe1\xc8\xeeb\x9f?'
tRp584
sg39
g31
(g33
S'~n8\x94\xee}\xe0?'
tRp585
sg41
g31
(g33
S'5\xad\x9ep#P\xf9?'
tRp586
ssS'AO_Lwide_Swide_logain'
p587
(dp588
g30
g31
(g33
S'\x11J\xe5\x00\xd2\x88\xee?'
tRp589
sg35
g31
(g33
S'\x1eF\x86m\r\xec\xec?'
tRp590
sg37
g31
(g33
S'n\xee\xe1\xc8\xeeb\x9f?'
tRp591
sg39
g31
(g33
S'|\x8d\x95k\xaf|\xc2?'
tRp592
sg41
g31
(g33
S'\x02\xdd|X\xc9\x84\xee?'
tRp593
ssS'GBT_Rcvr_1_2_VLAS_logain'
p594
(dp595
g30
g31
(g33
S'\xc1\xad7\xd2\xef\x08\xef?'
tRp596
sg35
g31
(g33
S'\xf1\x7f\xb1\x08\x81\xa5\xed?'
tRp597
sg37
g31
(g33
S'\xcf\xcd\xbb7\xd3d\x9d?'
tRp598
sg39
g31
(g33
S'\x05\xaf\xbb\x90K\xf3\xcf?'
tRp599
sg41
g31
(g33
S'\xb6\xd9\x8d\xc2t\x05\xef?'
tRp600
ssS'AO_430_Lwide_logain'
p601
(dp602
g30
g31
(g33
S')Vx\x03q\xac\xf6?'
tRp603
sg35
g31
(g33
S'[v\xe0\x07\xcc\x15\xef?'
tRp604
sg37
g31
(g33
S'n\xee\xe1\xc8\xeeb\x9f?'
tRp605
sg39
g31
(g33
S'=\xa1\xcaO!\x91\xd8?'
tRp606
sg41
g31
(g33
S'Mg\xb9d\x15\xab\xf6?'
tRp607
sssbag1
(g8
g3
NtRp608
(dp609
g11
F4.6151999999999997
sg12
F509.47760825294068
sg13
F0.27429999999999999
sg14
S'J2124-3358'
p610
sg16
F0.00077039999999999997
sg17
F6.2944344264936793
sg18
F2.3555634992184493
sg19
F0.0049311148591480889
sg20
F2065
sg21
F877.85701174477219
sg22
F320.97089319935259
sg23
F0.23960000000000001
sg24
F-33.97896027777778
sg25
F-1.1742500757441443
sg26
(dp611
S'GBT_Rcvr_800-Rcvr_1_2_logain'
p612
(dp613
g30
g31
(g33
S'\xbbY\xbeu\x81\xf5\xe7?'
tRp614
sg35
g31
(g33
S'#\xb9\xae\xa5Yk\xe2?'
tRp615
sg37
g31
(g33
S'*\xa4\x96&\x03\x1d\x97?'
tRp616
sg39
g31
(g33
S'\xad\x87f\xbb%\\\xcc?'
tRp617
sg41
g31
(g33
S'\xe3\x85\x16\xc7\xb7\xf2\xe7?'
tRp618
ssS'AO_Lwide_Swide_logain'
p619
(dp620
g30
g31
(g33
S'\x16\xb0\xc5\xfb\xe3\xb1\xe1?'
tRp621
sg35
g31
(g33
S'\xe7\xa7\xe7\r\xf8\x1f\xe1?'
tRp622
sg37
g31
(g33
S'*\xa4\x96&\x03\x1d\x97?'
tRp623
sg39
g31
(g33
S'^\xa1\xfe\x9a\xc2\x81\xb0?'
tRp624
sg41
g31
(g33
S' \xdd\x1ex\x1d\xae\xe1?'
tRp625
ssS'GBT_Rcvr_1_2_VLAS_logain'
p626
(dp627
g30
g31
(g33
S'\xa6\xd5<@U\x14\xe2?'
tRp628
sg35
g31
(g33
S'R\x7f\xeaA)s\xe1?'
tRp629
sg37
g31
(g33
S'\xebU\xfa\t]\xa5\x95?'
tRp630
sg39
g31
(g33
S'<\xe36\x8c6}\xbf?'
tRp631
sg41
g31
(g33
S'\xc1\xf7\xa7\xa5\x17\x11\xe2?'
tRp632
ssS'AO_430_Lwide_logain'
p633
(dp634
g30
g31
(g33
S'L4\xcfr\xfc\x04\xe5?'
tRp635
sg35
g31
(g33
S"Gb\xb1\xae'\xc8\xe1?"
tRp636
sg37
g31
(g33
S'*\xa4\x96&\x03\x1d\x97?'
tRp637
sg39
g31
(g33
S',z\x94\xfb\x94\xdb\xc4?'
tRp638
sg41
g31
(g33
S';\x9df\xe7\xce\x01\xe5?'
tRp639
sssbag1
(g8
g3
NtRp640
(dp641
g11
F26.591302000000002
sg12
F150.66888055832726
sg13
F1.2342
sg14
S'J1918-0642'
p642
sg16
F0.062320000000000014
sg17
F2.8534042893934184
sg18
F5.1826695269782164
sg19
F0.0076458727696416956
sg20
F487.10000000000002
sg21
F878.97803168919279
sg22
F36.21336407485753
sg23
F0.0029619999999999998
sg24
F-6.7091672921950076
sg25
F-1.9510396690393659
sg26
(dp643
S'GBT_Rcvr_800-Rcvr_1_2_logain'
p644
(dp645
g30
g31
(g33
S'NW\xa1A\xc1\xc3\xe0?'
tRp646
sg35
g31
(g33
S'\xf9\xd2\x99\x0eMl\xc7?'
tRp647
sg37
g31
(g33
S'-[\xf6\xbc}#\x89?'
tRp648
sg39
g31
(g33
S'\xb0\x13\xf9w5_\xc5?'
tRp649
sg41
g31
(g33
S'\x12\x0b\xd3\xa6\x93\xc2\xe0?'
tRp650
ssS'AO_Lwide_Swide_logain'
p651
(dp652
g30
g31
(g33
S'\x1d\x16S\x92H\x8a\xbf?'
tRp653
sg35
g31
(g33
S'\xcd\xec@\xe2}\xd6\xb5?'
tRp654
sg37
g31
(g33
S'-[\xf6\xbc}#\x89?'
tRp655
sg39
g31
(g33
S"'\x90\xcd\xf3G\x13\xa5?"
tRp656
sg41
g31
(g33
S'\x86\xc6W[\x1cb\xbf?'
tRp657
ssS'GBT_Rcvr_1_2_VLAS_logain'
p658
(dp659
g30
g31
(g33
S'\xc4\xae\xc1xl\x1b\xbd?'
tRp660
sg35
g31
(g33
S'~%\xa7\x1e\x80\xb5\xb7?'
tRp661
sg37
g31
(g33
S'\xcb\xd9i\x0f\xed\x8a\x87?'
tRp662
sg39
g31
(g33
S'\xa7H!L\x15\x12\xac?'
tRp663
sg41
g31
(g33
S'<\xcb"\xed=\xf5\xbc?'
tRp664
ssS'AO_430_Lwide_logain'
p665
(dp666
g30
g31
(g33
S'\xfd\x1b\xc6\x06f)\xe1?'
tRp667
sg35
g31
(g33
S'\x80\xe6\xb9-#\xfa\xc2?'
tRp668
sg37
g31
(g33
S'-[\xf6\xbc}#\x89?'
tRp669
sg39
g31
(g33
S'h\xf1\x88\x16\xd6Z\xc0?'
tRp670
sg41
g31
(g33
S'\x01K\xc1f?(\xe1?'
tRp671
sssbag1
(g8
g3
NtRp672
(dp673
g11
F14.056203
sg12
F303.65586435063148
sg13
F1.1514
sg14
S'J1453+1902'
p674
sg16
F0.018149999999999999
sg17
F0.5843970831668589
sg18
F4.8797176856294646
sg19
F0.0057923027385756937
sg20
F871.79999999999995
sg21
F906.99436077801602
sg22
F265.45310678845442
sg23
F0.01017
sg24
F19.038654174707371
sg25
F-1.4398711231579056
sg26
(dp675
S'GBT_Rcvr_800-Rcvr_1_2_logain'
p676
(dp677
g30
g31
(g33
S'$?8\x93\xa1\xd6\x06@'
tRp678
sg35
g31
(g33
S'\xf2\xd4\xe0\x7f\xd6\xe5\xf2?'
tRp679
sg37
g31
(g33
S'\x03\xd6j\x8e\x0c\xd8\x91?'
tRp680
sg39
g31
(g33
S'\x12\xa8\x1aK8K\xf1?'
tRp681
sg41
g31
(g33
S'\xb15\x00\xb1\x85\xd6\x06@'
tRp682
ssS'AO_Lwide_Swide_logain'
p683
(dp684
g30
g31
(g33
S'l\x83\x17\xba\x82\x00\xeb?'
tRp685
sg35
g31
(g33
S'Y:\xc5\x13\xf7\xfc\xe1?'
tRp686
sg37
g31
(g33
S'\x03\xd6j\x8e\x0c\xd8\x91?'
tRp687
sg39
g31
(g33
S'W\xf4\x9e\x1d6\x1e\xd3?'
tRp688
sg41
g31
(g33
S':\x9e\x1cX\t\xff\xea?'
tRp689
ssS'GBT_Rcvr_1_2_VLAS_logain'
p690
(dp691
g30
g31
(g33
S'\xa2?q\xc05\n\xed?'
tRp692
sg35
g31
(g33
S'\x17\x9aN\xc7\xe8M\xe6?'
tRp693
sg37
g31
(g33
S'\x8a\xa5\xabp\n\xb6\x90?'
tRp694
sg39
g31
(g33
S'\x02h\xbd\x8b\xa2I\xe0?'
tRp695
sg41
g31
(g33
S'\x07r\x10\x00\x02\t\xed?'
tRp696
ssS'AO_430_Lwide_logain'
p697
(dp698
g30
g31
(g33
S'\x88\xef\xad<>\x12\x04@'
tRp699
sg35
g31
(g33
S'\x85T*\x98\x02\xe9\xed?'
tRp700
sg37
g31
(g33
S'\x03\xd6j\x8e\x0c\xd8\x91?'
tRp701
sg39
g31
(g33
S'\xcd\xa4!\x92\xc6\xbc\xe9?'
tRp702
sg41
g31
(g33
S'\xb6iR\x82\x1e\x12\x04@'
tRp703
sssbag1
(g8
g3
NtRp704
(dp705
g11
F13.300066000000001
sg12
F517.90106052152532
sg13
F1.1758999999999999
sg14
S'B1855+09'
p706
sg16
F0.0077559999999999999
sg17
F5.8869941671296919
sg18
F4.2219782759781097
sg19
F0.0053621004661261809
sg20
F1348
sg21
F750.8827407394009
sg22
F115.83032631790761
sg23
F0.023800000000000002
sg24
F9.7217692523443517
sg25
F-1.3009824433178201
sg26
(dp707
S'GBT_Rcvr_800-Rcvr_1_2_logain'
p708
(dp709
g30
g31
(g33
S'\xf8G\xab|\x04\xbf\xd8?'
tRp710
sg35
g31
(g33
S'd7s\xf9Z\xe9\xcd?'
tRp711
sg37
g31
(g33
S'\x1et\x90\xec\xb9M\x97?'
tRp712
sg39
g31
(g33
S'}v\xc3yX\xf9\xbe?'
tRp713
sg41
g31
(g33
S'\xd6h\xa6\x11\t\xb4\xd8?'
tRp714
ssS'AO_Lwide_Swide_logain'
p715
(dp716
g30
g31
(g33
S'8\xfco\xbe\xb8\x8e\xcb?'
tRp717
sg35
g31
(g33
S'\x8e\xd8\x1f\xc9\xad\xed\xc9?'
tRp718
sg37
g31
(g33
S'\x1et\x90\xec\xb9M\x97?'
tRp719
sg39
g31
(g33
S'\x938Q\xf80\xb5\xa0?'
tRp720
sg41
g31
(g33
S'\xfc\x15m\xbc2g\xcb?'
tRp721
ssS'GBT_Rcvr_1_2_VLAS_logain'
p722
(dp723
g30
g31
(g33
S'\xb53\xd3\x91\x91\x14\xcc?'
tRp724
sg35
g31
(g33
S'\xf1qgJ\xaf\x9f\xca?'
tRp725
sg37
g31
(g33
S'FM\xfc\x16\xfc\xd2\x95?'
tRp726
sg39
g31
(g33
S'\x85\xea}\xc5\x91d\xad?'
tRp727
sg41
g31
(g33
S'{X\xc7\x86\x90\xf2\xcb?'
tRp728
ssS'AO_430_Lwide_logain'
p729
(dp730
g30
g31
(g33
S'e\xb2\xf2\xfb@\xc0\xd7?'
tRp731
sg35
g31
(g33
S'\xea\xe4p\rk\xfe\xcb?'
tRp732
sg37
g31
(g33
S'\x1et\x90\xec\xb9M\x97?'
tRp733
sg39
g31
(g33
S'\xc6\x89\xb3\x01\x96\xb2\xb6?'
tRp734
sg41
g31
(g33
S'@9\xb2\x8c\xcf\xb4\xd7?'
tRp735
sssbag1
(g8
g3
NtRp736
(dp737
g11
F23.962515
sg12
F118.57425734743521
sg13
F0.91439999999999999
sg14
S'J2039-3616'
p738
sg16
F0.055910000000000001
sg17
F1.1346082948166809
sg18
F4.8867105728041187
sg19
F0.0032750415510097572
sg20
F442.69999999999999
sg21
F504.44759385224546
sg22
F74.70178212888419
sg23
F0.0033019999999999998
sg24
F-36.271443896138891
sg25
F-1.1909580605947685
sg26
(dp739
S'GBT_Rcvr_800-Rcvr_1_2_logain'
p740
(dp741
g30
g31
(g33
S'\xfcw\xbe\xbcf\x81\xea?'
tRp742
sg35
g31
(g33
S'\x8f]t\x1f\x08\xc3\xd6?'
tRp743
sg37
g31
(g33
S'\xfa\xe9\x84\x19\x11M\x86?'
tRp744
sg39
g31
(g33
S'C\x19\xe8\r\x80\xd3\xd5?'
tRp745
sg41
g31
(g33
S'\x1eD[\x9f\xd0\x80\xea?'
tRp746
ssS'AO_Lwide_Swide_logain'
p747
(dp748
g30
g31
(g33
S'\xcb)\x8f\xe9\xe81\xd0?'
tRp749
sg35
g31
(g33
S'\x802\xa8\xc1J\r\xc2?'
tRp750
sg37
g31
(g33
S'\xfa\xe9\x84\x19\x11M\x86?'
tRp751
sg39
g31
(g33
S'\xeb\xaeJT\xc5=\xb9?'
tRp752
sg41
g31
(g33
S'\xfbo\x1a\xc2\x11.\xd0?'
tRp753
ssS'GBT_Rcvr_1_2_VLAS_logain'
p754
(dp755
g30
g31
(g33
S'\xc6wu;\x7f\x99\xd3?'
tRp756
sg35
g31
(g33
S',a6\xa9\xd8"\xcb?'
tRp757
sg37
g31
(g33
S'\xd9\x97%\x9e\x9e\xe2\x84?'
tRp758
sg39
g31
(g33
S'\x90\\T;\xae\xdf\xc7?'
tRp759
sg41
g31
(g33
S'\x98DL\xde\xb6\x96\xd3?'
tRp760
ssS'AO_430_Lwide_logain'
p761
(dp762
g30
g31
(g33
S'\xadh\x9c\x08KY\xe4?'
tRp763
sg35
g31
(g33
S'\x1d\xf0\x83C\x8fN\xd1?'
tRp764
sg37
g31
(g33
S'\xfa\xe9\x84\x19\x11M\x86?'
tRp765
sg39
g31
(g33
S'\x98&` \xe2\x0c\xd0?'
tRp766
sg41
g31
(g33
S'z\xa4\xa2~\x87X\xe4?'
tRp767
sssbag1
(g8
g3
NtRp768
(dp769
g11
F20.711986
sg12
F21.127887311968962
sg13
F1.7583
sg14
S'J2043+1711'
p770
sg16
F0.012159999999999999
sg17
F0.41797072494740289
sg18
F3.6443244238926633
sg19
F0.002379878923889773
sg20
F1316
sg21
F179.43998316054066
sg22
F15.65237146151186
sg23
F0.015180000000000001
sg24
F17.19087710298799
sg25
F-1.7752789684409529
sg26
(dp771
S'GBT_Rcvr_800-Rcvr_1_2_logain'
p772
(dp773
g30
g31
(g33
S'ur\xbaM[\x8d\xee?'
tRp774
sg35
g31
(g33
S'\xbc\x95\xc6\xd1\x94\xbd\xd5?'
tRp775
sg37
g31
(g33
S'ga\xeb\xc3\xc9\xd3r?'
tRp776
sg39
g31
(g33
S'\x84\xdd\xb6R\xaf\xb5\xd5?'
tRp777
sg41
g31
(g33
S'\x91\xdat\x19D\x8d\xee?'
tRp778
ssS'AO_Lwide_Swide_logain'
p779
(dp780
g30
g31
(g33
S'\xa7\x83~]?\xa1\xca?'
tRp781
sg35
g31
(g33
S'g\x00\xb0%\x19@\xb7?'
tRp782
sg37
g31
(g33
S'ga\xeb\xc3\xc9\xd3r?'
tRp783
sg39
g31
(g33
S'\xc5[Z\x11\xa8\xc9\xb6?'
tRp784
sg41
g31
(g33
S'\xa4\xf2m]\x95\x9f\xca?'
tRp785
ssS'GBT_Rcvr_1_2_VLAS_logain'
p786
(dp787
g30
g31
(g33
S']Z;\xac\xc6\x83\xc9?'
tRp788
sg35
g31
(g33
S'2t:\xb3!\xee\xc0?'
tRp789
sg37
g31
(g33
S'\xe0u\xd6C\xcc\xa1q?'
tRp790
sg39
g31
(g33
S'\xcb\x92$\xf1\xce\xc5\xc0?'
tRp791
sg41
g31
(g33
S'\xb6\x88\xf5\xb7@\x82\xc9?'
tRp792
ssS'AO_430_Lwide_logain'
p793
(dp794
g30
g31
(g33
S'[\xe9*g\xbc)\xed?'
tRp795
sg35
g31
(g33
S'\xa3y\xe1\xf9T\x87\xd0?'
tRp796
sg37
g31
(g33
S'ga\xeb\xc3\xc9\xd3r?'
tRp797
sg39
g31
(g33
S'[\x93\x92?\xe7|\xd0?'
tRp798
sg41
g31
(g33
S'\x8c`\xef\x17\xa4)\xed?'
tRp799
sssbag1
(g8
g3
NtRp800
(dp801
g11
F15.991845999999999
sg12
F110.37250558761772
sg13
F0.89480000000000004
sg14
S'J1713+0747'
p802
sg16
F0.024330000000000001
sg17
F6.6345126076353003
sg18
F6.1904567158010391
sg19
F0.0045701365275817949
sg20
F663.89999999999998
sg21
F539.24830424747938
sg22
F32.034920700522179
sg23
F0.0075899999999999987
sg24
F7.7944363977076305
sg25
F-0.83468786319584443
sg26
(dp803
S'GBT_Rcvr_800-Rcvr_1_2_logain'
p804
(dp805
g30
g31
(g33
S'\x86\xe3\xb6\xad\x17\\\xc3?'
tRp806
sg35
g31
(g33
S'hL\x89a\xa9c\xb4?'
tRp807
sg37
g31
(g33
S'\xde\xef)\xe6\x14\x84\x85?'
tRp808
sg39
g31
(g33
S'\xe7\xf3\x1c\x90\x07B\xaf?'
tRp809
sg41
g31
(g33
S'\xc5\xc9\x034\x1fP\xc3?'
tRp810
ssS'AO_Lwide_Swide_logain'
p811
(dp812
g30
g31
(g33
S'\x0f\x03\x1d\x961a\xb1?'
tRp813
sg35
g31
(g33
S'\xd0\x98\xe1.\xe9\xc2\xab?'
tRp814
sg37
g31
(g33
S'\xde\xef)\xe6\x14\x84\x85?'
tRp815
sg39
g31
(g33
S'Rsj\xff\xd7\x85\x92?'
tRp816
sg41
g31
(g33
S'\t\x91:\xfc\x98+\xb1?'
tRp817
ssS'GBT_Rcvr_1_2_VLAS_logain'
p818
(dp819
g30
g31
(g33
S'7a&\x11\xde\xca\xb4?'
tRp820
sg35
g31
(g33
S'\x9b\xc3\x9a\x85\xc0[\xb0?'
tRp821
sg37
g31
(g33
S'\x95r\x8b\xecd&\x84?'
tRp822
sg39
g31
(g33
S'\xad\xa9\xddN\x05\xab\xa3?'
tRp823
sg41
g31
(g33
S'I\xd9R\x1c\xab\xa3\xb4?'
tRp824
ssS'AO_430_Lwide_logain'
p825
(dp826
g30
g31
(g33
S'\xb3\x0ejY\xd2\x05\xbf?'
tRp827
sg35
g31
(g33
S'\x011\xa6\xc8\x0eD\xb1?'
tRp828
sg37
g31
(g33
S'\xde\xef)\xe6\x14\x84\x85?'
tRp829
sg39
g31
(g33
S'\x94a8\xf1\xafv\xa6?'
tRp830
sg41
g31
(g33
S'A\xb1\xc4\xa2\xeb\xe7\xbe?'
tRp831
sssbag1
(g8
g3
NtRp832
(dp833
g11
F9.0019279999999995
sg12
F338.60744050340872
sg13
F0.56799999999999995
sg14
S'J2145-0750'
p834
sg16
F0.003153
sg17
F8.8027431007922878
sg18
F4.3726575978476072
sg19
F0.01605242367131449
sg20
F1469
sg21
F1825.1133381020568
sg22
F113.3115063703607
sg23
F0.058560000000000001
sg24
F-7.8374828003868249
sg25
F-2.0407740375498524
sg26
(dp835
S'GBT_Rcvr_800-Rcvr_1_2_logain'
p836
(dp837
g30
g31
(g33
S'\x90\xb1\xa57\x8c\x80\xdf?'
tRp838
sg35
g31
(g33
S'\x8a(NT,\xf7\xd6?'
tRp839
sg37
g31
(g33
S'V|\x89\x9b\xc9\xd7\x92?'
tRp840
sg39
g31
(g33
S'\nce\xe9\x1d\x92\xbe?'
tRp841
sg41
g31
(g33
S'\x9a\xa2\x91\x0b\xe9z\xdf?'
tRp842
ssS'AO_Lwide_Swide_logain'
p843
(dp844
g30
g31
(g33
S'\xfa\x9f\xd1ER&\xd6?'
tRp845
sg35
g31
(g33
S'Xb\x01h\xc4\xbd\xd5?'
tRp846
sg37
g31
(g33
S'V|\x89\x9b\xc9\xd7\x92?'
tRp847
sg39
g31
(g33
S'\xb2\xdc{x\xe0\xb0\x9e?'
tRp848
sg41
g31
(g33
S'~^\xdb\x00M\x1e\xd6?'
tRp849
ssS'GBT_Rcvr_1_2_VLAS_logain'
p850
(dp851
g30
g31
(g33
S'\xcc%j\x966\x06\xd6?'
tRp852
sg35
g31
(g33
S'<n\xdf\x1e\xca\xcc\xd5?'
tRp853
sg37
g31
(g33
S'1P{\x1b\x8b\xa5\x91?'
tRp854
sg39
g31
(g33
S'>c\xe4#\xbb\xf9\xa3?'
tRp855
sg41
g31
(g33
S'\xe0\xc3\x05\xa4#\xff\xd5?'
tRp856
ssS'AO_430_Lwide_logain'
p857
(dp858
g30
g31
(g33
S'\x1e\xc4x\xaaGs\xdf?'
tRp859
sg35
g31
(g33
S'\xb0O\xa2\x8fvr\xd6?'
tRp860
sg37
g31
(g33
S'V|\x89\x9b\xc9\xd7\x92?'
tRp861
sg39
g31
(g33
S'\x13\xd3\xb5\x85\xae\x9e\xb7?'
tRp862
sg41
g31
(g33
S'\x0f\x97$\x1d\xa2m\xdf?'
tRp863
sssbag1
(g8
g3
NtRp864
(dp865
g11
F13.383954999999998
sg12
F311.84371205995495
sg13
F0.79359999999999997
sg14
S'J2322+2057'
p866
sg16
F0.005947
sg17
F0.47284666962138971
sg18
F4.1403306496511476
sg19
F0.004808428211204965
sg20
F1264
sg21
F476.88197325538482
sg22
F26.697582429066809
sg23
F0.031040000000000002
sg24
F20.950797597111109
sg25
F-1.5572802449498797
sg26
(dp867
S'GBT_Rcvr_800-Rcvr_1_2_logain'
p868
(dp869
g30
g31
(g33
S'\x99\xcc\xcfxI\x08\x00@'
tRp870
sg35
g31
(g33
S'5k0\x97\xc2\x86\xe8?'
tRp871
sg37
g31
(g33
S'H3\xe6\xf29\x15\x92?'
tRp872
sg39
g31
(g33
S'\x04(m8\x92|\xe8?'
tRp873
sg41
g31
(g33
S'(o\xff\xad \x08\x00@'
tRp874
ssS'AO_Lwide_Swide_logain'
p875
(dp876
g30
g31
(g33
S'\x99\x14\xab\x8f\xee^\xdf?'
tRp877
sg35
g31
(g33
S'\x1e\xe6\x0b\x07\xa2r\xcb?'
tRp878
sg37
g31
(g33
S'H3\xe6\xf29\x15\x92?'
tRp879
sg39
g31
(g33
S'\xdb\x86\x89y\x97\xdf\xca?'
tRp880
sg41
g31
(g33
S'\xeb\x85\x99\xed\xb7Y\xdf?'
tRp881
ssS'GBT_Rcvr_1_2_VLAS_logain'
p882
(dp883
g30
g31
(g33
S'\x8d\xb3\xbe\x86\xb8\x9b\xe0?'
tRp884
sg35
g31
(g33
S'\xe4\xcd\xbf~\xaf\x15\xd6?'
tRp885
sg37
g31
(g33
S')\x7f\xb7\x8cU\xef\x90?'
tRp886
sg39
g31
(g33
S'\xa0\xdbh\x0eM\xe8\xd5?'
tRp887
sg41
g31
(g33
S'\xc1\x12\xe1\xcf\x8f\x99\xe0?'
tRp888
ssS'AO_430_Lwide_logain'
p889
(dp890
g30
g31
(g33
S'\xca\xf3\xd9\xb7Y\xa5\xfb?'
tRp891
sg35
g31
(g33
S'L&\xe3\xd7\x16o\xe2?'
tRp892
sg37
g31
(g33
S'H3\xe6\xf29\x15\x92?'
tRp893
sg39
g31
(g33
S'\xf0\x14\xf0\xfd\x85a\xe2?'
tRp894
sg41
g31
(g33
S'\x11\r\xc3\x17\xfb\xa4\xfb?'
tRp895
sssbag1
(g8
g3
NtRp896
(dp897
g11
F11.103667
sg12
F129.06967133008973
sg13
F0.4899
sg14
S'J0636+5128'
p898
sg16
F0.01133
sg17
F1.4362999675990875
sg18
F6.6449735780842678
sg19
F0.002868952846534217
sg20
F719.79999999999995
sg21
F460.22251070499482
sg22
F58.321240283030043
sg23
F0.016289999999999999
sg24
F51.483538514272851
sg25
F-1.7023436375153926
sg26
(dp899
S'GBT_Rcvr_800-Rcvr_1_2_logain'
p900
(dp901
g30
g31
(g33
S'y\x9f\x10\x17\x14\xbe\xd9?'
tRp902
sg35
g31
(g33
S'\xd3\xb3\xbf\x9e\x08\xa3\xc4?'
tRp903
sg37
g31
(g33
S'\xc3`\xcd\xf4_D\x87?'
tRp904
sg39
g31
(g33
S'\x08\xbdm\x16\xac[\xc2?'
tRp905
sg41
g31
(g33
S'W\xff9\x01s\xbb\xd9?'
tRp906
ssS'AO_Lwide_Swide_logain'
p907
(dp908
g30
g31
(g33
S'\xf9\xb8\xea*G\xa9\xbd?'
tRp909
sg35
g31
(g33
S'\xc2\xae\x13\xd6&;\xb5?'
tRp910
sg37
g31
(g33
S'\xc3`\xcd\xf4_D\x87?'
tRp911
sg39
g31
(g33
S'\x94\x0bR\xa2\r\x89\xa3?'
tRp912
sg41
g31
(g33
S'Y\xf0V\xe9\xaf\x84\xbd?'
tRp913
ssS'GBT_Rcvr_1_2_VLAS_logain'
p914
(dp915
g30
g31
(g33
S'\xba\xb5\x88v\xc8u\xbd?'
tRp916
sg35
g31
(g33
S'$\xc9\xad\x02\xfd\x02\xb8?'
tRp917
sg37
g31
(g33
S'9\xf4!\x1b:\xca\x85?'
tRp918
sg39
g31
(g33
S'\xb4\x98\xfcA\xf8\xbf\xad?'
tRp919
sg41
g31
(g33
S'%N\xd0\xf5zU\xbd?'
tRp920
ssS'AO_430_Lwide_logain'
p921
(dp922
g30
g31
(g33
S'\x97r\xa3\xb33\x15\xd8?'
tRp923
sg35
g31
(g33
S'\x1e\x8d\xc5c\x10\xc8\xc0?'
tRp924
sg37
g31
(g33
S'\xc3`\xcd\xf4_D\x87?'
tRp925
sg39
g31
(g33
S'YXOl\x1e\xc4\xbb?'
tRp926
sg41
g31
(g33
S'\xc5\xf7\xc75d\x12\xd8?'
tRp927
sssbag1
(g8
g3
NtRp928
(dp929
g11
F38.327064
sg12
F638.49733708512883
sg13
F1.4498
sg14
S'J0509+0856'
p930
sg16
F0.14660000000000001
sg17
F2.428701261287757
sg18
F2.3173795287562973
sg19
F0.0040558382314362772
sg20
F344.30000000000001
sg21
F888.70655021526034
sg22
F402.25332236363113
sg23
F0.0012600000000000001
sg24
F8.9402873791666675
sg25
F-1.4321881378181067
sg26
(dp931
S'GBT_Rcvr_800-Rcvr_1_2_logain'
p932
(dp933
g30
g31
(g33
S"\x98\xcf'@*\xb6\xf7?"
tRp934
sg35
g31
(g33
S'\xb1"\xd2Jd\xb2\xe9?'
tRp935
sg37
g31
(g33
S'\xbd\xea\xb4\xa7\xfc\xdf\x99?'
tRp936
sg39
g31
(g33
S'\xbc\xbc\xe3\xdav\xf0\xe0?'
tRp937
sg41
g31
(g33
S'X\x14@YH\xb5\xf7?'
tRp938
ssS'AO_Lwide_Swide_logain'
p939
(dp940
g30
g31
(g33
S'\tC#\xea\xd7A\xe6?'
tRp941
sg35
g31
(g33
S'\x02\xc6\x17>X\xe4\xe3?'
tRp942
sg37
g31
(g33
S'\xbd\xea\xb4\xa7\xfc\xdf\x99?'
tRp943
sg39
g31
(g33
S'\xfb \x1f\xce\xfe\xe6\xc2?'
tRp944
sg41
g31
(g33
S'\x86\xc2b\x03\x15>\xe6?'
tRp945
ssS'GBT_Rcvr_1_2_VLAS_logain'
p946
(dp947
g30
g31
(g33
S'\xc1\xab\xc4\xc4\x0b\xed\xe6?'
tRp948
sg35
g31
(g33
S'\xa0R\xc2\xb9\xeb\xf4\xe4?'
tRp949
sg37
g31
(g33
S']\xae/tt;\x98?'
tRp950
sg39
g31
(g33
S'U\x0b\xd1c^:\xd0?'
tRp951
sg41
g31
(g33
S'\xbcK"\xee\xd7\xe9\xe6?'
tRp952
ssS'AO_430_Lwide_logain'
p953
(dp954
g30
g31
(g33
S'J\xd8\t;\x0b\xba\xf4?'
tRp955
sg35
g31
(g33
S'\xd1\xac\xfa\x95w\x15\xe7?'
tRp956
sg37
g31
(g33
S'\xbd\xea\xb4\xa7\xfc\xdf\x99?'
tRp957
sg39
g31
(g33
S'\xbf\x9f1\xc0\xb7<\xd9?'
tRp958
sg41
g31
(g33
S'N\x8fq\xca\x08\xb9\xf4?'
tRp959
sssbag1
(g8
g3
NtRp960
(dp961
g11
F19.798873
sg12
F41.575104676448177
sg13
F0.85640000000000005
sg14
S'J0154+1833'
p962
sg16
F0.033030000000000004
sg17
F0.31166879567032169
sg18
F6.4244288278794492
sg19
F0.002364569776304132
sg20
F557.39999999999998
sg21
F255.33398954148376
sg22
F26.192315946162356
sg23
F0.0055890000000000002
sg24
F18.564099888138891
sg25
F-2.3784983184709416
sg26
(dp963
S'GBT_Rcvr_800-Rcvr_1_2_logain'
p964
(dp965
g30
g31
(g33
S'\xea)~\x1a\x80\x8e\xec?'
tRp966
sg35
g31
(g33
S'\x87\xee\xd3\xa3\xc6\x9b\xd1?'
tRp967
sg37
g31
(g33
S'\x07\xd7\x86\x87\x16iz?'
tRp968
sg39
g31
(g33
S'E\x0bM\xfax\x80\xd1?'
tRp969
sg41
g31
(g33
S's\xbfe@O\x8e\xec?'
tRp970
ssS'AO_Lwide_Swide_logain'
p971
(dp972
g30
g31
(g33
S'a\xeeG\xad\xd1\x11\xc4?'
tRp973
sg35
g31
(g33
S'@!\xd3\xeb\xce!\xb2?'
tRp974
sg37
g31
(g33
S'\x07\xd7\x86\x87\x16iz?'
tRp975
sg39
g31
(g33
S'\x90\x8d~a5j\xb0?'
tRp976
sg41
g31
(g33
S'\xb2k\xbd\ry\r\xc4?'
tRp977
ssS'GBT_Rcvr_1_2_VLAS_logain'
p978
(dp979
g30
g31
(g33
S'\xcb\xa9\xe3[\x19\x81\xbe?'
tRp980
sg35
g31
(g33
S'\xb32\xbcK}\xa8\xb3?'
tRp981
sg37
g31
(g33
S'\x90v\x94\x18\xda\xbbx?'
tRp982
sg39
g31
(g33
S'v\x05\x1a\x92\xe9\x17\xb2?'
tRp983
sg41
g31
(g33
S'8mN\xae\x10w\xbe?'
tRp984
ssS'AO_430_Lwide_logain'
p985
(dp986
g30
g31
(g33
S'\xd6$\xfe"\xd4\x85\xed?'
tRp987
sg35
g31
(g33
S"\xfff'V\xaf\xec\xcb?"
tRp988
sg37
g31
(g33
S'\x07\xd7\x86\x87\x16iz?'
tRp989
sg39
g31
(g33
S'\x00\x89\xa8\xe1\xdf\xa6\xcb?'
tRp990
sg41
g31
(g33
S'\xfc\xad*\xe2\xa4\x85\xed?'
tRp991
sssbag1
(g8
g3
NtRp992
(dp993
g11
F297.50621100000001
sg12
F195.43477379626884
sg13
F6.3647999999999998
sg14
S'J1903+0327'
p994
sg16
F1410
sg17
F0.84855443377463469
sg18
F5.4308220838718935
sg19
F0.0021499123330577211
sg20
F7.3540000000000001
sg21
F406.58572244275899
sg22
F105.7604489025952
sg23
F1.3089999999999999e-07
sg24
F3.4557023816690005
sg25
F-0.79222546070841549
sg26
(dp995
S'GBT_Rcvr_800-Rcvr_1_2_logain'
p996
(dp997
g30
g31
(g33
S'G\xca\xee\xd9\xff\x0fd@'
tRp998
sg35
g31
(g33
S'0-o\x92\xf9\x84\xe3?'
tRp999
sg37
g31
(g33
S'\x17\xc8Z\xd4p\xa1\x8c?'
tRp1000
sg39
g31
(g33
S'\x1e\xe0p\xd7\xbf\xee\xe2?'
tRp1001
sg41
g31
(g33
S')\xed\xa7\xd8\xff\x0fd@'
tRp1002
ssS'AO_Lwide_Swide_logain'
p1003
(dp1004
g30
g31
(g33
S'\x1dD\xa9\xf1*\xa4T@'
tRp1005
sg35
g31
(g33
S'r\x1e\xe9\xe9\x96\xe3\xc9?'
tRp1006
sg37
g31
(g33
S'\x17\xc8Z\xd4p\xa1\x8c?'
tRp1007
sg39
g31
(g33
S'\xd2x{]\xd0\xc0\xc3?'
tRp1008
sg41
g31
(g33
S'\xe5x\xb2\xec*\xa4T@'
tRp1009
ssS'GBT_Rcvr_1_2_VLAS_logain'
p1010
(dp1011
g30
g31
(g33
S'\x18K\xb4\xc1G\x81>@'
tRp1012
sg35
g31
(g33
S'W\x9eh\xf1:\xdb\xd4?'
tRp1013
sg37
g31
(g33
S'1:\x80A\x1f\xd0\x8a?'
tRp1014
sg39
g31
(g33
S'ml\xde]\xb0\\\xd3?'
tRp1015
sg41
g31
(g33
S'k\x94\x91\x92G\x81>@'
tRp1016
ssS'AO_430_Lwide_logain'
p1017
(dp1018
g30
g31
(g33
S'\x10\xeaf\\\x05\x7fe@'
tRp1019
sg35
g31
(g33
S'\n\xe4\x83\xaeA\n\xe0?'
tRp1020
sg37
g31
(g33
S'\x17\xc8Z\xd4p\xa1\x8c?'
tRp1021
sg39
g31
(g33
S'\xb2\xd2\x19j\x86\x1e\xdc?'
tRp1022
sg41
g31
(g33
S'\xc1\xd95[\x05\x7fe@'
tRp1023
sssbag1
(g8
g3
NtRp1024
(dp1025
g11
F18.247520000000002
sg12
F117.86448172999944
sg13
F0.69999999999999996
sg14
S'J0645+5158'
p1026
sg16
F0.036450000000000003
sg17
F0.57935424703226368
sg18
F6.1056981475884404
sg19
F0.0088534966862976877
sg20
F479.69999999999999
sg21
F622.22619669423
sg22
F10.823427122139297
sg23
F0.0050639999999999999
sg24
F51.971218367427362
sg25
F-1.3326838343800058
sg26
(dp1027
S'GBT_Rcvr_800-Rcvr_1_2_logain'
p1028
(dp1029
g30
g31
(g33
S'\xcd\xf39\xe6U\xb7\xf8?'
tRp1030
sg35
g31
(g33
S'\xc0\x1c\xe9\x04\xfa\xce\xe3?'
tRp1031
sg37
g31
(g33
S't\xb0%C\xf4;\x86?'
tRp1032
sg39
g31
(g33
S'\xc7\xd2i\xa3\n\xcb\xe3?'
tRp1033
sg41
g31
(g33
S'#\xaaX\xe5-\xb7\xf8?'
tRp1034
ssS'AO_Lwide_Swide_logain'
p1035
(dp1036
g30
g31
(g33
S'\x80\xef\xcaYt=\xda?'
tRp1037
sg35
g31
(g33
S'\xec\xc3\xbbY\xf8\x9e\xc6?'
tRp1038
sg37
g31
(g33
S't\xb0%C\xf4;\x86?'
tRp1039
sg39
g31
(g33
S'\x07\x7f\x16bjh\xc6?'
tRp1040
sg41
g31
(g33
S'\xfc\xe0r^\x19;\xda?'
tRp1041
ssS'GBT_Rcvr_1_2_VLAS_logain'
p1042
(dp1043
g30
g31
(g33
S'\x9c)\xf3\x90\r\xa9\xde?'
tRp1044
sg35
g31
(g33
S'\xb3\x82\xfb\xacH\x18\xd4?'
tRp1045
sg37
g31
(g33
S'\x08\xdd<\xe7\x97\xd2\x84?'
tRp1046
sg39
g31
(g33
S'\x8c\xce\xdf\xe1/\t\xd4?'
tRp1047
sg41
g31
(g33
S'\xa0\xca(\xfdH\xa7\xde?'
tRp1048
ssS'AO_430_Lwide_logain'
p1049
(dp1050
g30
g31
(g33
S'\xfc\x9c\xb9\xec\xde\xfd\xf3?'
tRp1051
sg35
g31
(g33
S';\xf3\xc0\x97\xf0]\xdd?'
tRp1052
sg37
g31
(g33
S't\xb0%C\xf4;\x86?'
tRp1053
sg39
g31
(g33
S'\xcd\xf0}\xa8\x08S\xdd?'
tRp1054
sg41
g31
(g33
S'E[\x9ew\xad\xfd\xf3?'
tRp1055
sssbag1
(g8
g3
NtRp1056
(dp1057
g11
F23.923517999999998
sg12
F63.989472199925281
sg13
F1.5752999999999999
sg14
S'J2017+0603'
p1058
sg16
F0.022450000000000001
sg17
F0.27904201304653353
sg18
F3.3198832663573925
sg19
F0.0028962158167230218
sg20
F916.89999999999998
sg21
F242.44848896871653
sg22
F24.910988174185253
sg23
F0.0082220000000000001
sg24
F6.051704732035506
sg25
F0
sg26
(dp1059
S'GBT_Rcvr_800-Rcvr_1_2_logain'
p1060
(dp1061
g30
g31
(g33
S'\x0cL\x80\xa5\xb1\x87\x08@'
tRp1062
sg35
g31
(g33
S'^\xd0]\xa2\x18\x8f\xf9?'
tRp1063
sg37
g31
(g33
S'\x99T\xbc\x81\xf5a\x80?'
tRp1064
sg39
g31
(g33
S'\xb7E\xb5\xf1\xcc\x8d\xf9?'
tRp1065
sg41
g31
(g33
S'\xefX\x02-\xac\x87\x08@'
tRp1066
ssS'AO_Lwide_Swide_logain'
p1067
(dp1068
g30
g31
(g33
S'G\xea\xe3\xb5<\xd5\xf6?'
tRp1069
sg35
g31
(g33
S'u\xda\x90w\xbc+\xe1?'
tRp1070
sg37
g31
(g33
S'\x99T\xbc\x81\xf5a\x80?'
tRp1071
sg39
g31
(g33
S'\x97C\x80\xf3\x01$\xe1?'
tRp1072
sg41
g31
(g33
S';\x88\x823%\xd5\xf6?'
tRp1073
ssS'GBT_Rcvr_1_2_VLAS_logain'
p1074
(dp1075
g30
g31
(g33
S';]\x9es\x026\x07@'
tRp1076
sg35
g31
(g33
S'\xb8.\x02\xe0Xk\xf6?'
tRp1077
sg37
g31
(g33
S'B\x9d\xb0\x8ff\xaf~?'
tRp1078
sg39
g31
(g33
S'\x0bi\xb4|\xe0i\xf6?'
tRp1079
sg41
g31
(g33
S'`<\x80a\xfd5\x07@'
tRp1080
ssS'AO_430_Lwide_logain'
p1081
(dp1082
g30
g31
(g33
S'\r\x17\xce)Q\x9f\xf7?'
tRp1083
sg35
g31
(g33
S'\x9f\xf3\xc4\x94f\r\xf2?'
tRp1084
sg37
g31
(g33
S'\x99T\xbc\x81\xf5a\x80?'
tRp1085
sg39
g31
(g33
S'mEE\x19\x8a\x0b\xf2?'
tRp1086
sg41
g31
(g33
S'\tc\x8ap:\x9f\xf7?'
tRp1087
sssbag1
(g8
g3
NtRp1088
(dp1089
g11
F18.857215
sg12
F145.84932790145118
sg13
F1.6343000000000001
sg14
S'J1923+2515'
p1090
sg16
F0.010189999999999999
sg17
F0.60516350719640755
sg18
F5.0112431169847502
sg19
F0.0037881555206550821
sg20
F1387
sg21
F534.4780116044368
sg22
F196.59058405381859
sg23
F0.018119999999999997
sg24
F25.261170319522385
sg25
F-1.7135234381458309
sg26
(dp1091
S'GBT_Rcvr_800-Rcvr_1_2_logain'
p1092
(dp1093
g30
g31
(g33
S'\xe3\ri\x1d\xde\xc9\xf8?'
tRp1094
sg35
g31
(g33
S'\x97\x1c\x8be\x04o\xe3?'
tRp1095
sg37
g31
(g33
S'X\x1b\x07\xef\xb9\xbb\x88?'
tRp1096
sg39
g31
(g33
S'o\x96N\xafL(\xe1?'
tRp1097
sg41
g31
(g33
S'\xc2F\xfc\xc1\xac\xc9\xf8?'
tRp1098
ssS'AO_Lwide_Swide_logain'
p1099
(dp1100
g30
g31
(g33
S'\xd3\x8c\xb5Q\x01\xcd\xdb?'
tRp1101
sg35
g31
(g33
S'\x97L(\x88\x1cX\xd4?'
tRp1102
sg37
g31
(g33
S'X\x1b\x07\xef\xb9\xbb\x88?'
tRp1103
sg39
g31
(g33
S'\xab\xa5h\xff^\xf8\xc1?'
tRp1104
sg41
g31
(g33
S'\x80\x17\xdc\x0bA\xca\xdb?'
tRp1105
ssS'GBT_Rcvr_1_2_VLAS_logain'
p1106
(dp1107
g30
g31
(g33
S'\x99\x19\xb6\xc58p\xdb?'
tRp1108
sg35
g31
(g33
S'J\x9b\x91\xd8\xb1\xb4\xd6?'
tRp1109
sg37
g31
(g33
S'!\x95\x1f\xb1\xbf)\x87?'
tRp1110
sg39
g31
(g33
S'\x0432P\xec\x02\xcb?'
tRp1111
sg41
g31
(g33
S'\x11\xe3\xe7\xef\xc6m\xdb?'
tRp1112
ssS'AO_430_Lwide_logain'
p1113
(dp1114
g30
g31
(g33
S'\x84\xec\x93\x0c4&\xf8?'
tRp1115
sg35
g31
(g33
S'\xa5\x1b\xcf\x90\xca\xb2\xdf?'
tRp1116
sg37
g31
(g33
S'X\x1b\x07\xef\xb9\xbb\x88?'
tRp1117
sg39
g31
(g33
S'\xd6S\x91\x82m\xea\xd9?'
tRp1118
sg41
g31
(g33
S'\xd2\x8f\xa3b\x01&\xf8?'
tRp1119
sssbag1
(g8
g3
NtRp1120
(dp1121
g11
F102.581
sg12
F84.144846817111528
sg13
F2.9348000000000001
sg14
S'J0557+1551'
p1122
sg16
F4.8300000000000001
sg17
F0.062583766473242403
sg18
F6.4290669638272417
sg19
F0.002556367076782876
sg20
F85.329999999999998
sg21
F345.69690759718213
sg22
F53.011253494780256
sg23
F3.8220000000000003e-05
sg24
F15.835012268333333
sg25
F0
sg26
(dp1123
S'GBT_Rcvr_800-Rcvr_1_2_logain'
p1124
(dp1125
g30
g31
(g33
S'I\xe0\x1c\xd8\xae\xd6$@'
tRp1126
sg35
g31
(g33
S'\tQ\xc7\xda\xfeE\x15@'
tRp1127
sg37
g31
(g33
S'\xdf\x18\x00\xefQ\xc9\x82?'
tRp1128
sg39
g31
(g33
S'L\xd32I\x95E\x15@'
tRp1129
sg41
g31
(g33
S'\xcfN\x9fP\xae\xd6$@'
tRp1130
ssS'AO_Lwide_Swide_logain'
p1131
(dp1132
g30
g31
(g33
S's\x88\x18\xfb\x1f\xed\x12@'
tRp1133
sg35
g31
(g33
S'\xb0\xa3\x95\xad\xd1e\xfc?'
tRp1134
sg37
g31
(g33
S'\xdf\x18\x00\xefQ\xc9\x82?'
tRp1135
sg39
g31
(g33
S'/\x1av\xf1\xf3`\xfc?'
tRp1136
sg41
g31
(g33
S'\xcao_\xa6\x1d\xed\x12@'
tRp1137
ssS'GBT_Rcvr_1_2_VLAS_logain'
p1138
(dp1139
g30
g31
(g33
S'HJD=\x94 #@'
tRp1140
sg35
g31
(g33
S'I\xed\xc2\xca\x1e\x8d\x12@'
tRp1141
sg37
g31
(g33
S'\xeb\n\xd3\x90\xfe\x97\x81?'
tRp1142
sg39
g31
(g33
S'\xdb<\x1a\x84\xaa\x8c\x12@'
tRp1143
sg41
g31
(g33
S'l3\xcd\xbb\x93 #@'
tRp1144
ssS'AO_430_Lwide_logain'
p1145
(dp1146
g30
g31
(g33
S'\xd6yXp\x0b\xe4$@'
tRp1147
sg35
g31
(g33
S'\xedm(\xc1\x88\x11\x0e@'
tRp1148
sg37
g31
(g33
S'\xdf\x18\x00\xefQ\xc9\x82?'
tRp1149
sg39
g31
(g33
S'A\x10{\xbc"\x10\x0e@'
tRp1150
sg41
g31
(g33
S'*\x911\xe9\n\xe4$@'
tRp1151
sssbag1
(g8
g3
NtRp1152
(dp1153
g11
F57.491329
sg12
F39.855831084820146
sg13
F1.6546000000000001
sg14
S'J1705-1903'
p1154
sg16
F0.76180000000000003
sg17
F0.87113293623427324
sg18
F7.7255260952451126
sg19
F0.0024802912990134107
sg20
F161.30000000000001
sg21
F227.56790819864091
sg22
F25.1091735834367
sg23
F0.00024230000000000001
sg24
F-19.061847463630095
sg25
F-0.9631545648867309
sg26
(dp1155
S'GBT_Rcvr_800-Rcvr_1_2_logain'
p1156
(dp1157
g30
g31
(g33
S'\xc0\xd0\xd6\xe9\xd4a\xda?'
tRp1158
sg35
g31
(g33
S"m\xa7\\'\xf0'\xc3?"
tRp1159
sg37
g31
(g33
S'\xad\xf3F\x9f\xd0\xdby?'
tRp1160
sg39
g31
(g33
S'w\xe7\x1eO?\xc4\xc2?'
tRp1161
sg41
g31
(g33
S'\x0b\xa2"#\na\xda?'
tRp1162
ssS'AO_Lwide_Swide_logain'
p1163
(dp1164
g30
g31
(g33
S'\xbeND\xa0\n\xa5\xbe?'
tRp1165
sg35
g31
(g33
S'\xd2|\xac\xd5\xa3\xc0\xaa?'
tRp1166
sg37
g31
(g33
S'\xad\xf3F\x9f\xd0\xdby?'
tRp1167
sg39
g31
(g33
S'\xa5\xeb\xcbM\xf1\xfb\xa5?'
tRp1168
sg41
g31
(g33
S'IC\xc7\xb5\x1f\x9a\xbe?'
tRp1169
ssS'GBT_Rcvr_1_2_VLAS_logain'
p1170
(dp1171
g30
g31
(g33
S'\xea\xaat\x18\xc4q\xc2?'
tRp1172
sg35
g31
(g33
S'u\xea\x90\x8d5\xa6\xb7?'
tRp1173
sg37
g31
(g33
S'\xd61\xf09\x8c7x?'
tRp1174
sg39
g31
(g33
S'\x006\xe0N\xeff\xb6?'
tRp1175
sg41
g31
(g33
S'\xb1\xb0\n0\xcam\xc2?'
tRp1176
ssS'AO_430_Lwide_logain'
p1177
(dp1178
g30
g31
(g33
S'\xd8u\xe1\x9c\xa9\x1e\xf1?'
tRp1179
sg35
g31
(g33
S'\xb8v|\xaf\xebJ\xbc?'
tRp1180
sg37
g31
(g33
S'\xad\xf3F\x9f\xd0\xdby?'
tRp1181
sg39
g31
(g33
S' |\xf9y9,\xbb?'
tRp1182
sg41
g31
(g33
S'\xe1\xe1^\x15\x96\x1e\xf1?'
tRp1183
sssbag1
(g8
g3
NtRp1184
(dp1185
g11
F4.3328670000000002
sg12
F504.66270860867553
sg13
F0.31830000000000003
sg14
S'J0030+0451'
p1186
sg16
F0.0003412
sg17
F1.982121147634708
sg18
F3.8408396855254265
sg19
F0.0048654532112550773
sg20
F3344
sg21
F540.89238432008472
sg22
F131.67882199744793
sg23
F0.54110000000000003
sg24
F4.8609614624557738
sg25
F-1.3701695310372546
sg26
(dp1187
S'GBT_Rcvr_800-Rcvr_1_2_logain'
p1188
(dp1189
g30
g31
(g33
S'<\x93\xd2\x89\xcf\x92\xe4?'
tRp1190
sg35
g31
(g33
S'afr]\xce\xd1\xd4?'
tRp1191
sg37
g31
(g33
S';\x07\xedp\xfc\x00\x97?'
tRp1192
sg39
g31
(g33
S'J\xe5\x1a\xffH\x14\xcf?'
tRp1193
sg41
g31
(g33
S'S\xfeY4\x98\x8f\xe4?'
tRp1194
ssS'AO_Lwide_Swide_logain'
p1195
(dp1196
g30
g31
(g33
S'\x926\x82\x05\xdeL\xd1?'
tRp1197
sg35
g31
(g33
S'a\xcbx\xbf\x8c\x12\xcd?'
tRp1198
sg37
g31
(g33
S';\x07\xedp\xfc\x00\x97?'
tRp1199
sg39
g31
(g33
S'\xd14\xbb\xc2\xdc\x95\xb1?'
tRp1200
sg41
g31
(g33
S'w\x19u\xff\x8b=\xd1?'
tRp1201
ssS'GBT_Rcvr_1_2_VLAS_logain'
p1202
(dp1203
g30
g31
(g33
S'\xf5x\xd1o#E\xd2?'
tRp1204
sg35
g31
(g33
S'\xe9\x18\x9d<\xd8\xc3\xcf?'
tRp1205
sg37
g31
(g33
S'\xf2\xf5\x1f\xd3\x1d\x8b\x95?'
tRp1206
sg39
g31
(g33
S'q\xf2iN[\x0e\xbf?'
tRp1207
sg41
g31
(g33
S'\xe5s\xeddk8\xd2?'
tRp1208
ssS'AO_430_Lwide_logain'
p1209
(dp1210
g30
g31
(g33
S'\x08\n\tI\xdb\xe0\xe0?'
tRp1211
sg35
g31
(g33
S'\xe1G\xe7\x0bL\t\xd2?'
tRp1212
sg37
g31
(g33
S';\x07\xedp\xfc\x00\x97?'
tRp1213
sg39
g31
(g33
S"\xdfO'Q\x18\x18\xc7?"
tRp1214
sg41
g31
(g33
S'\x850S\x8d\xef\xdc\xe0?'
tRp1215
sssbag1
(g8
g3
NtRp1216
(dp1217
g11
F21.898938000000001
sg12
F152.22701083682438
sg13
F0.82679999999999998
sg14
S'J2317+1439'
p1218
sg16
F0.011479999999999999
sg17
F0.95983822282724396
sg18
F5.5472589662366163
sg19
F0.0034452510722190769
sg20
F929
sg21
F376.48413878136012
sg22
F25.243741839120982
sg23
F0.016079999999999997
sg24
F14.657718648889873
sg25
F-2.3181408168859847
sg26
(dp1219
S'GBT_Rcvr_800-Rcvr_1_2_logain'
p1220
(dp1221
g30
g31
(g33
S'&\xc7y\x03\xfb\xf1\xdf?'
tRp1222
sg35
g31
(g33
S'\xce\xeeRn_g\xc4?'
tRp1223
sg37
g31
(g33
S'\xa9\xfc\xc0\x7f\xaeD\x89?'
tRp1224
sg39
g31
(g33
S'\x98\x1a\xf5\xd1>\xe8\xc3?'
tRp1225
sg41
g31
(g33
S'\xf2e\xbeU{\xef\xdf?'
tRp1226
ssS'AO_Lwide_Swide_logain'
p1227
(dp1228
g30
g31
(g33
S"\x11iz`'}\xb8?"
tRp1229
sg35
g31
(g33
S']\xd5\xa9*\xc0\r\xaa?'
tRp1230
sg37
g31
(g33
S'\xa9\xfc\xc0\x7f\xaeD\x89?'
tRp1231
sg39
g31
(g33
S'D\xb2\x05`\xd6\xf1\xa2?'
tRp1232
sg41
g31
(g33
S'\xa3-\x08F\xcaH\xb8?'
tRp1233
ssS'GBT_Rcvr_1_2_VLAS_logain'
p1234
(dp1235
g30
g31
(g33
S'=G\xfd\xb5\xec\xb6\xb3?'
tRp1236
sg35
g31
(g33
S'\xf7W\xd3\x0ej\xff\xab?'
tRp1237
sg37
g31
(g33
S'\xb8C\xc9d\x02\xaa\x87?'
tRp1238
sg39
g31
(g33
S'\xc1\x03z\x15)\x8b\xa5?'
tRp1239
sg41
g31
(g33
S'\x05\xfd\x0f\x9f\xca}\xb3?'
tRp1240
ssS'AO_430_Lwide_logain'
p1241
(dp1242
g30
g31
(g33
S'\x9f\x14Gc\xf0j\xe0?'
tRp1243
sg35
g31
(g33
S'x\xa5\xb1\x93\xddJ\xc0?'
tRp1244
sg37
g31
(g33
S'\xa9\xfc\xc0\x7f\xaeD\x89?'
tRp1245
sg39
g31
(g33
S'q\xc1vm\xb1T\xbf?'
tRp1246
sg41
g31
(g33
S'2\xce\xef8\xb9i\xe0?'
tRp1247
sssbag1
(g8
g3
NtRp1248
(dp1249
g11
F4.1837679999999997
sg12
F712.15802857629865
sg13
F0.4763
sg14
S'J1327+3423'
p1250
sg16
F0.00046280000000000003
sg17
F0.82683458768414597
sg18
F6.6785960559291873
sg19
F0.041512709726315794
sg20
F3512
sg21
F4156.5984831618516
sg22
F448.65955800306818
sg23
F0.39899999999999997
sg24
F34.393789008416675
sg25
F-1.67880705728968
sg26
(dp1251
S'GBT_Rcvr_800-Rcvr_1_2_logain'
p1252
(dp1253
g30
g31
(g33
S'\x16\x8e\xe89\x96}\x19@'
tRp1254
sg35
g31
(g33
S'\x93\xd6\x95\xdf\xbf\xca\x08@'
tRp1255
sg37
g31
(g33
S'\t\xbb\x98\x8c\xa6S\x9b?'
tRp1256
sg39
g31
(g33
S'=\xa8\xe4\xfc\xc0\xd1\x01@'
tRp1257
sg41
g31
(g33
S'\xa8\xc2\x1a\x94\x87}\x19@'
tRp1258
ssS'AO_Lwide_Swide_logain'
p1259
(dp1260
g30
g31
(g33
S'\x0e\x8eN\x92_\x86\x04@'
tRp1261
sg35
g31
(g33
S'\x7f\xf3\xc3\xbdr\xe4\x01@'
tRp1262
sg37
g31
(g33
S'\t\xbb\x98\x8c\xa6S\x9b?'
tRp1263
sg39
g31
(g33
S'\x17\xbb\x80Ys1\xe3?'
tRp1264
sg41
g31
(g33
S'Z\xe6\xd7\xcd\x16\x86\x04@'
tRp1265
ssS'GBT_Rcvr_1_2_VLAS_logain'
p1266
(dp1267
g30
g31
(g33
S'6\xa2\xbd\xef1\x8d\x04@'
tRp1268
sg35
g31
(g33
S'\x02\xbfaD\n\xc4\x02@'
tRp1269
sg37
g31
(g33
S'U\xf8\x88\xe4\x85\x97\x99?'
tRp1270
sg39
g31
(g33
S'\xbcI\x9aU\x05\xad\xed?'
tRp1271
sg41
g31
(g33
S'\xc8\xb3\xbc2\xf2\x8c\x04@'
tRp1272
ssS'AO_430_Lwide_logain'
p1273
(dp1274
g30
g31
(g33
S'l?\xfa\xd5\xd3\x15\x17@'
tRp1275
sg35
g31
(g33
S'g\xfd\x9d\x02\xe1\xe0\x05@'
tRp1276
sg37
g31
(g33
S'\t\xbb\x98\x8c\xa6S\x9b?'
tRp1277
sg39
g31
(g33
S'^Y\x01\xef\xc1\xf2\xfa?'
tRp1278
sg41
g31
(g33
S'\x9b\xecw\xa9\xc3\x15\x17@'
tRp1279
sssbag1
(g8
g3
NtRp1280
(dp1281
g11
F17.831987999999999
sg12
F233.19375250317131
sg13
F1.0044999999999999
sg14
S'J2234+0944'
p1282
sg16
F0.019880000000000002
sg17
F1.2704368894976776
sg18
F3.6198637492800336
sg19
F0.0036270278952670672
sg20
F778.20000000000005
sg21
F549.9267109179458
sg22
F40.146719782846276
sg23
F0.0092879999999999994
sg24
F9.7413109260183592
sg25
F-0.74125338586630185
sg26
(dp1283
S'GBT_Rcvr_800-Rcvr_1_2_logain'
p1284
(dp1285
g30
g31
(g33
S'\xac\x81\xe5\xd5\xcfq\xf2?'
tRp1286
sg35
g31
(g33
S'\x00\x005\xcd\x8cE\xe1?'
tRp1287
sg37
g31
(g33
S'\xd1\x03\xf3X<F\x8f?'
tRp1288
sg39
g31
(g33
S'\x82\xe4\xe74\xc6,\xe1?'
tRp1289
sg41
g31
(g33
S'\xfc\xdb0\xc6eq\xf2?'
tRp1290
ssS'AO_Lwide_Swide_logain'
p1291
(dp1292
g30
g31
(g33
S'\xf4\xdd\x94\xa10"\xda?'
tRp1293
sg35
g31
(g33
S'\xf5\xd2\xa8\xd6Sz\xc6?'
tRp1294
sg37
g31
(g33
S'\xd1\x03\xf3X<F\x8f?'
tRp1295
sg39
g31
(g33
S'~\x13\x96YIB\xc5?'
tRp1296
sg41
g31
(g33
S'\xd7I\x0b\x91\x82\x1d\xda?'
tRp1297
ssS'GBT_Rcvr_1_2_VLAS_logain'
p1298
(dp1299
g30
g31
(g33
S'\xbbOD\xb6~\xd9\xe3?'
tRp1300
sg35
g31
(g33
S'\xbf\t\xa4\x05\xc9\xce\xd7?'
tRp1301
sg37
g31
(g33
S'y\xf5\x9b-\xf3I\x8d?'
tRp1302
sg39
g31
(g33
S'\x9bF\x92\xcc\xcb\x86\xd7?'
tRp1303
sg41
g31
(g33
S'\xa8\xceJ\xee$\xd8\xe3?'
tRp1304
ssS'AO_430_Lwide_logain'
p1305
(dp1306
g30
g31
(g33
S'+\x06\x8c\xda\x8a\xc4\xe5?'
tRp1307
sg35
g31
(g33
S"\xb6j\xc8'\x83\x13\xd9?"
tRp1308
sg37
g31
(g33
S'\xd1\x03\xf3X<F\x8f?'
tRp1309
sg39
g31
(g33
S'\x0bs\x89<\xf5\xce\xd8?'
tRp1310
sg41
g31
(g33
S'\xe0\xef\x97X#\xc3\xe5?'
tRp1311
sssbag1
(g8
g3
NtRp1312
(dp1313
g11
F23.971116000000002
sg12
F269.86013945038087
sg13
F1.2577
sg14
S'J1745+1017'
p1314
sg16
F0.049119999999999997
sg17
F1.0766514097897897
sg18
F5.0576098722357239
sg19
F0.0026521296299683553
sg20
F553.89999999999998
sg21
F343.05281172139837
sg22
F170.01188785373998
sg23
F0.0037579999999999996
sg24
F10.297922533333333
sg25
F-1.1958185584778889
sg26
(dp1315
S'GBT_Rcvr_800-Rcvr_1_2_logain'
p1316
(dp1317
g30
g31
(g33
S"\xfa\x90I'\xcf\xb8\xe4?"
tRp1318
sg35
g31
(g33
S'\x17."\xa6w\x83\xd4?'
tRp1319
sg37
g31
(g33
S'\xddq\xb1\x84Y\xd2\x90?'
tRp1320
sg39
g31
(g33
S'D\xe2\r;\x1fb\xcf?'
tRp1321
sg41
g31
(g33
S'\x85o\x1b\x1b\x1a\xb7\xe4?'
tRp1322
ssS'AO_Lwide_Swide_logain'
p1323
(dp1324
g30
g31
(g33
S'\x9aM\x16\x91\xd9\xe2\xd0?'
tRp1325
sg35
g31
(g33
S'\xdfg\xcd\xa3\x8f\xe1\xcb?'
tRp1326
sg37
g31
(g33
S'\xddq\xb1\x84Y\xd2\x90?'
tRp1327
sg39
g31
(g33
S'\xca\xe4\xf1\x9a\xdf\xcf\xb1?'
tRp1328
sg41
g31
(g33
S'\x1ez\x1a\x87v\xda\xd0?'
tRp1329
ssS'GBT_Rcvr_1_2_VLAS_logain'
p1330
(dp1331
g30
g31
(g33
S'\x19W\\\x95kw\xd2?'
tRp1332
sg35
g31
(g33
S'\x0c@\xcf\xd8y;\xcf?'
tRp1333
sg37
g31
(g33
S')\x1e\xa4T\xe9\x81\x8f?'
tRp1334
sg39
g31
(g33
S'\xc8I\xee\x88\xae\xa9\xc0?'
tRp1335
sg41
g31
(g33
S'\n\x06\xc6\x1a\xb2p\xd2?'
tRp1336
ssS'AO_430_Lwide_logain'
p1337
(dp1338
g30
g31
(g33
S'34\xff\xce\xcb\xbf\xe1?'
tRp1339
sg35
g31
(g33
S'\x9e\xd1\xe5,\xd3\x84\xd1?'
tRp1340
sg37
g31
(g33
S'\xddq\xb1\x84Y\xd2\x90?'
tRp1341
sg39
g31
(g33
S']\x84@M\x00\xff\xc6?'
tRp1342
sg41
g31
(g33
S'd\n`\x88\xcd\xbd\xe1?'
tRp1343
sssbag1
(g8
g3
NtRp1344
(dp1345
g11
F18.427823
sg12
F220.35143555043584
sg13
F1.1607000000000001
sg14
S'J1640+2224'
p1346
sg16
F0.03449
sg17
F1.0873745755002406
sg18
F6.2356346956364535
sg19
F0.0031633158188016969
sg20
F635.10000000000002
sg21
F465.0740662002172
sg22
F27.878013459439543
sg23
F0.0053540000000000003
sg24
F22.403916756275887
sg25
F-2.0257336892224931
sg26
(dp1347
S'GBT_Rcvr_800-Rcvr_1_2_logain'
p1348
(dp1349
g30
g31
(g33
S'\xb54\x8f\xb8\xf3\xfc\xe0?'
tRp1350
sg35
g31
(g33
S'\t\x1aXjV\x01\xc7?'
tRp1351
sg37
g31
(g33
S'H,\x03\r\xa8f\x8e?'
tRp1352
sg39
g31
(g33
S'\xfa1\xa6T\x01\x82\xc6?'
tRp1353
sg41
g31
(g33
S'\x0fdMg@\xfb\xe0?'
tRp1354
ssS'AO_Lwide_Swide_logain'
p1355
(dp1356
g30
g31
(g33
S'\xba\x7f`\xc8\x83Z\xbc?'
tRp1357
sg35
g31
(g33
S'\x9e^\xcdMYs\xad?'
tRp1358
sg37
g31
(g33
S'H,\x03\r\xa8f\x8e?'
tRp1359
sg39
g31
(g33
S'\x01\x06\x9b\xf7\x96\x88\xa6?'
tRp1360
sg41
g31
(g33
S'\x9a\x1f`\xdc\x06\x19\xbc?'
tRp1361
ssS'GBT_Rcvr_1_2_VLAS_logain'
p1362
(dp1363
g30
g31
(g33
S'\x99\x1cD\\ \xe3\xb8?'
tRp1364
sg35
g31
(g33
S'\xd8k\x83a\xf4\x80\xb1?'
tRp1365
sg37
g31
(g33
S'\x95~Q\x99\x90x\x8c?'
tRp1366
sg39
g31
(g33
S'\xa9\x1b\xc0P\x93s\xad?'
tRp1367
sg41
g31
(g33
S'\x18\xd7+\xff\xa5\xa1\xb8?'
tRp1368
ssS'AO_430_Lwide_logain'
p1369
(dp1370
g30
g31
(g33
S'\x00\xcf\x07+\xc3\x17\xe1?'
tRp1371
sg35
g31
(g33
S'\x0e\xc8\xc1>\x02\x02\xc2?'
tRp1372
sg37
g31
(g33
S'H,\x03\r\xa8f\x8e?'
tRp1373
sg39
g31
(g33
S'\xee\x83(\xbb\xa1\\\xc1?'
tRp1374
sg41
g31
(g33
S'F\xfa\xd6\x84\x12\x16\xe1?'
tRp1375
sssbag1
(g8
g3
NtRp1376
(dp1377
g11
F30.981503999999997
sg12
F88.74355803863692
sg13
F2.0699000000000001
sg14
S'J1911+1347'
p1378
sg16
F0.029829999999999999
sg17
F1.1671319236098356
sg18
F5.5134273247158871
sg19
F0.0046259624708794465
sg20
F911.79999999999995
sg21
F463.4842844120729
sg22
F38.271172166421984
sg23
F0.0061879999999999999
sg24
F13.793079004743594
sg25
F-1.3542112400003126
sg26
(dp1379
S'GBT_Rcvr_800-Rcvr_1_2_logain'
p1380
(dp1381
g30
g31
(g33
S'kM\x91,\nc\xe9?'
tRp1382
sg35
g31
(g33
S'&[`\xe1\xd7\x99\xd2?'
tRp1383
sg37
g31
(g33
S'\xbf\xee\xbe\xfd\xfdJ\x83?'
tRp1384
sg39
g31
(g33
S'\xe8\x96\tu\x1e.\xd2?'
tRp1385
sg41
g31
(g33
S'*\x91 \xe0\x94b\xe9?'
tRp1386
ssS'AO_Lwide_Swide_logain'
p1387
(dp1388
g30
g31
(g33
S'A\x9a(_"\x12\xc8?'
tRp1389
sg35
g31
(g33
S'-\xd6\x97T\x04\xf1\xb8?'
tRp1390
sg37
g31
(g33
S'\xbf\xee\xbe\xfd\xfdJ\x83?'
tRp1391
sg39
g31
(g33
S'\x00)\t\xe9\xf4\\\xb3?'
tRp1392
sg41
g31
(g33
S'\x0c\x90\x87\xcfe\n\xc8?'
tRp1393
ssS'GBT_Rcvr_1_2_VLAS_logain'
p1394
(dp1395
g30
g31
(g33
S'\xe5\x94w\xcf\xd2\x90\xca?'
tRp1396
sg35
g31
(g33
S'Mr\xe2\xb6\xb9`\xc2?'
tRp1397
sg37
g31
(g33
S'\xfc\x99`!o\x11\x82?'
tRp1398
sg39
g31
(g33
S'\xfd\xbd\xd1\xd4n\x9d\xc0?'
tRp1399
sg41
g31
(g33
S"\xe7\x8a\x84'\xad\x8a\xca?"
tRp1400
ssS'AO_430_Lwide_logain'
p1401
(dp1402
g30
g31
(g33
S'O\x12\xb1\xca\xcbj\xe8?'
tRp1403
sg35
g31
(g33
S'[\xff\x13\xb6\xff\xd9\xcb?'
tRp1404
sg37
g31
(g33
S'\xbf\xee\xbe\xfd\xfdJ\x83?'
tRp1405
sg39
g31
(g33
S'\xec\xf7\xd4q\xb0\xb6\xca?'
tRp1406
sg41
g31
(g33
S'\xb9`\x9d\xd5Qj\xe8?'
tRp1407
sssbag1
(g8
g3
NtRp1408
(dp1409
g11
F60.666200000000003
sg12
F185.72433072891792
sg13
F3.5503999999999998
sg14
S'J0610-2100'
p1410
sg16
F0.29420000000000002
sg17
F1.3222365893933763
sg18
F4.7090806871234117
sg19
F0.0038613247042986248
sg20
F380.30000000000001
sg21
F577.41697245701562
sg22
F117.00632835921827
sg23
F0.00062760000000000008
sg24
F-21.007782166666665
sg25
F-1.4564224522254441
sg26
(dp1411
S'GBT_Rcvr_800-Rcvr_1_2_logain'
p1412
(dp1413
g30
g31
(g33
S'\xe5\xe2\x04\x7f\xf3x\xe9?'
tRp1414
sg35
g31
(g33
S'\xa3\xd5\xfd\xaa\xcaX\xd6?'
tRp1415
sg37
g31
(g33
S'm\xfb\x93\xc8\x08\xe9\x8b?'
tRp1416
sg39
g31
(g33
S'!m+\x1b\xcev\xd3?'
tRp1417
sg41
g31
(g33
S'\x99r\xab\xd3\xfew\xe9?'
tRp1418
ssS'AO_Lwide_Swide_logain'
p1419
(dp1420
g30
g31
(g33
S'r\xd2\xcaF\x17\xd6\xd0?'
tRp1421
sg35
g31
(g33
S'\xf3\x12\xc5\\\x93~\xc8?'
tRp1422
sg37
g31
(g33
S'm\xfb\x93\xc8\x08\xe9\x8b?'
tRp1423
sg39
g31
(g33
S'\xdc\xe4\x95>\xb8\xbf\xb5?'
tRp1424
sg41
g31
(g33
S'\xdb{_\xb3M\xd0\xd0?'
tRp1425
ssS'GBT_Rcvr_1_2_VLAS_logain'
p1426
(dp1427
g30
g31
(g33
S'H\x89\x9a\x16[\xd8\xd1?'
tRp1428
sg35
g31
(g33
S'\xb27\xd3O$\xb8\xcc?'
tRp1429
sg37
g31
(g33
S'R\xdbrEl#\x8a?'
tRp1430
sg39
g31
(g33
S'\xb0\x00\xdbS\x82\x88\xc2?'
tRp1431
sg41
g31
(g33
S'LpYM\x91\xd3\xd1?'
tRp1432
ssS'AO_430_Lwide_logain'
p1433
(dp1434
g30
g31
(g33
S',\x06Gd\x8c\xee\xe7?'
tRp1435
sg35
g31
(g33
S'Aez54M\xd2?'
tRp1436
sg37
g31
(g33
S'm\xfb\x93\xc8\x08\xe9\x8b?'
tRp1437
sg39
g31
(g33
S'\x91\x9f\x04\x92\t\x11\xcd?'
tRp1438
sg41
g31
(g33
S'\x8a\x90\x10\xf8\x87\xed\xe7?'
tRp1439
sssbag1
(g8
g3
NtRp1440
(dp1441
g11
F28.19330200000001
sg12
F47.811995766800344
sg13
F1.1124000000000001
sg14
S'J1832-0836'
p1442
sg16
F0.10589999999999999
sg17
F2.2051546346605804
sg18
F3.0613748766488182
sg19
F0.0027191120208218521
sg20
F354.80000000000001
sg21
F188.3800258749348
sg22
F57.31308440796132
sg23
F0.0017430000000000002
sg24
F-8.6149009703153343
sg25
F-2.2336966934673481
sg26
(dp1443
S'GBT_Rcvr_800-Rcvr_1_2_logain'
p1444
(dp1445
g30
g31
(g33
S'\x8e\x02+\x17\x96B\xd7?'
tRp1446
sg35
g31
(g33
S'\x90l`\xd5-\xf2\xbd?'
tRp1447
sg37
g31
(g33
S'\x9c\x8c\x89\xad\x81R|?'
tRp1448
sg39
g31
(g33
S'\xdc+j\xe6?\xd8\xb7?'
tRp1449
sg41
g31
(g33
S'\xed!\x12-\x82A\xd7?'
tRp1450
ssS'AO_Lwide_Swide_logain'
p1451
(dp1452
g30
g31
(g33
S'\xbbd\xd8\x98:\xed\xb5?'
tRp1453
sg35
g31
(g33
S'\xd7\xc0\x94SJ\xa9\xb2?'
tRp1454
sg37
g31
(g33
S'\x9c\x8c\x89\xad\x81R|?'
tRp1455
sg39
g31
(g33
S'd%\xff@\\\xde\x92?'
tRp1456
sg41
g31
(g33
S'~u\xa4D\xe8\xda\xb5?'
tRp1457
ssS'GBT_Rcvr_1_2_VLAS_logain'
p1458
(dp1459
g30
g31
(g33
S'd\xa4@\xa7\xb53\xb4?'
tRp1460
sg35
g31
(g33
S'nT\x1di\x08\xb4\xb2?'
tRp1461
sg37
g31
(g33
S'\xed\x06\xf8\xfa2\x86z?'
tRp1462
sg39
g31
(g33
S'*\x94u\xef\xbf\xd4\x93?'
tRp1463
sg41
g31
(g33
S'd\xf0\xa0\x86D"\xb4?'
tRp1464
ssS'AO_430_Lwide_logain'
p1465
(dp1466
g30
g31
(g33
S'\x92\xff\x15\xd1\xa9\xc6\xd6?'
tRp1467
sg35
g31
(g33
S'ce\xce\xb1\xfb\x07\xba?'
tRp1468
sg37
g31
(g33
S'\x9c\x8c\x89\xad\x81R|?'
tRp1469
sg39
g31
(g33
S'u\xa4Wj\x1b}\xb2?'
tRp1470
sg41
g31
(g33
S'\x04\x9ey\t\x90\xc5\xd6?'
tRp1471
sssbag1
(g8
g3
NtRp1472
(dp1473
g11
F59.156268999999995
sg12
F94.355549737141146
sg13
F2.6897000000000002
sg14
S'J1803+1358'
p1474
sg16
F0.38140000000000002
sg17
F1.037126954159284
sg18
F2.9300533644620206
sg19
F0.0015236748460567384
sg20
F290.69999999999999
sg21
F175.99282702438512
sg22
F59.443996334398939
sg23
F0.000484
sg24
F13.972625610583336
sg25
F-3.063273897135212
sg26
(dp1475
S'GBT_Rcvr_800-Rcvr_1_2_logain'
p1476
(dp1477
g30
g31
(g33
S'\x01\t\xf3\x94-7\xd7?'
tRp1478
sg35
g31
(g33
S'\xe3\xf2\xc5\xe7\x018\xbb?'
tRp1479
sg37
g31
(g33
S'\xdf0b\xdb\xc3\xe4\x83?'
tRp1480
sg39
g31
(g33
S'\x1f\xa6\xcf9\xecR\xb7?'
tRp1481
sg41
g31
(g33
S'\x9a\xe1\xae\xfa\x0b5\xd7?'
tRp1482
ssS'AO_Lwide_Swide_logain'
p1483
(dp1484
g30
g31
(g33
S'\xbb`\x90\x8d\x9b\xbb\xb3?'
tRp1485
sg35
g31
(g33
S'f&\x9a\x0c\x11\xae\xad?'
tRp1486
sg37
g31
(g33
S'\xdf0b\xdb\xc3\xe4\x83?'
tRp1487
sg39
g31
(g33
S'\x85\xcc\xcc\xdae\x80\x92?'
tRp1488
sg41
g31
(g33
S'$eU\xf1U\x93\xb3?'
tRp1489
ssS'GBT_Rcvr_1_2_VLAS_logain'
p1490
(dp1491
g30
g31
(g33
S'\xfe\xd0\xa4\x19\x93\xfb\xaf?'
tRp1492
sg35
g31
(g33
S'<5T}\x7f\xe9\xac?'
tRp1493
sg37
g31
(g33
S'A\xd0&\xceq\xa1\x82?'
tRp1494
sg39
g31
(g33
S'\x19z\x16\x88\xaa\x9f\x8c?'
tRp1495
sg41
g31
(g33
S'\xd4`\xb4\x86I\xa4\xaf?'
tRp1496
ssS'AO_430_Lwide_logain'
p1497
(dp1498
g30
g31
(g33
S'<Rrb>d\xd8?'
tRp1499
sg35
g31
(g33
S'\xc8\xda\xcbz:\x89\xb8?'
tRp1500
sg37
g31
(g33
S'\xdf0b\xdb\xc3\xe4\x83?'
tRp1501
sg39
g31
(g33
S'\xa2\x03\x19\x03\xccR\xb3?'
tRp1502
sg41
g31
(g33
S'\xdc]\xce\x187b\xd8?'
tRp1503
sssbag1
(g8
g3
NtRp1504
(dp1505
g11
F49.575848000000001
sg12
F213.02325001831608
sg13
F1.7317
sg14
S'J0340+4130'
p1506
sg16
F0.29370000000000002
sg17
F1.0100441473898387
sg18
F5.1133804443832176
sg19
F0.003299339366491248
sg20
F265.80000000000001
sg21
F513.21968154550939
sg22
F265.03666846306703
sg23
F0.0006286000000000001
sg24
F41.510214480144931
sg25
F-1.8610158921183624
sg26
(dp1507
S'GBT_Rcvr_800-Rcvr_1_2_logain'
p1508
(dp1509
g30
g31
(g33
S'\x98\xdd\x83\xdb\x1a \xec?'
tRp1510
sg35
g31
(g33
S'i\xaf\xd4\x1a\x00\xfc\xdc?'
tRp1511
sg37
g31
(g33
S'\xc3:1(&\xe4\x8d?'
tRp1512
sg39
g31
(g33
S'Y{\xab\x85\xb8\xae\xd1?'
tRp1513
sg41
g31
(g33
S'80p\xb2\x1c\x1f\xec?'
tRp1514
ssS'AO_Lwide_Swide_logain'
p1515
(dp1516
g30
g31
(g33
S'\x8c\xd2\x9c\x07\x10\\\xd9?'
tRp1517
sg35
g31
(g33
S'\x10l\x8a\xeb\xffi\xd7?'
tRp1518
sg37
g31
(g33
S'\xc3:1(&\xe4\x8d?'
tRp1519
sg39
g31
(g33
S'\x00Z\x0b\x82\xf09\xb2?'
tRp1520
sg41
g31
(g33
S'\xda8\x884\xa8W\xd9?'
tRp1521
ssS'GBT_Rcvr_1_2_VLAS_logain'
p1522
(dp1523
g30
g31
(g33
S'\n\x98\x91a}\xfc\xd8?'
tRp1524
sg35
g31
(g33
S'-\x8d\x02\x00~\xd9\xd7?'
tRp1525
sg37
g31
(g33
S'\x98/\x0f\xc6W\xfe\x8b?'
tRp1526
sg39
g31
(g33
S'\xb4\xef.I\x80\xbd\xb9?'
tRp1527
sg41
g31
(g33
S'\x14\x93\x85w\x91\xf8\xd8?'
tRp1528
ssS'AO_430_Lwide_logain'
p1529
(dp1530
g30
g31
(g33
S'\x84\xe1\x1d\xea\xd1a\xec?'
tRp1531
sg35
g31
(g33
S'\xabp\x9c{\xcd\xa6\xda?'
tRp1532
sg37
g31
(g33
S'\xc3:1(&\xe4\x8d?'
tRp1533
sg39
g31
(g33
S'\xe9\x02\x00"\xaf\xfd\xca?'
tRp1534
sg41
g31
(g33
S'pb\x98\r\xd6`\xec?'
tRp1535
sssbag1
(g8
g3
NtRp1536
(dp1537
g11
F9.6163399999999992
sg12
F372.19876950823095
sg13
F0.52780000000000005
sg14
S'J1730-2304'
p1538
sg16
F0.0092770000000000005
sg17
F6.0049640015458454
sg18
F5.3132952758455296
sg19
F0.0081227979201426836
sg20
F825.70000000000005
sg21
F884.80461659729281
sg22
F234.4852247901855
sg23
F0.019900000000000001
sg24
F-23.075334946944452
sg25
F-1.9554770437621816
sg26
(dp1539
S'GBT_Rcvr_800-Rcvr_1_2_logain'
p1540
(dp1541
g30
g31
(g33
S'":\xa0\'I\x03\xe2?'
tRp1542
sg35
g31
(g33
S'\xa6"\x8a\xf0\xb5&\xe0?'
tRp1543
sg37
g31
(g33
S'4w\xb0\xa6f\xc1\x93?'
tRp1544
sg39
g31
(g33
S'\x04,\x92lC\xd6\xb4?'
tRp1545
sg41
g31
(g33
S'W\xfa\xdc\x9d\x93\x00\xe2?'
tRp1546
ssS'AO_Lwide_Swide_logain'
p1547
(dp1548
g30
g31
(g33
S'\x1a\xd4\x81\xbaq\x05\xe0?'
tRp1549
sg35
g31
(g33
S'<^\xab\xf2w\xe7\xdf?'
tRp1550
sg37
g31
(g33
S'4w\xb0\xa6f\xc1\x93?'
tRp1551
sg39
g31
(g33
S'\xb7t1E\x92\x0b\x94?'
tRp1552
sg41
g31
(g33
S'j\xf9\xec\xeae\x02\xe0?'
tRp1553
ssS'GBT_Rcvr_1_2_VLAS_logain'
p1554
(dp1555
g30
g31
(g33
S'\xc2\x9b\xbe\xa0\x84\x00\xe0?'
tRp1556
sg35
g31
(g33
S'\xfcRw%\xfa\xeb\xdf?'
tRp1557
sg37
g31
(g33
S'n3|ZS\x80\x92?'
tRp1558
sg39
g31
(g33
S'\xc2\xcc\x85e\x92D\x9a?'
tRp1559
sg41
g31
(g33
S'\x1a\xbf,\xcb\xaf\xfb\xdf?'
tRp1560
ssS'AO_430_Lwide_logain'
p1561
(dp1562
g30
g31
(g33
S'\x0c\x10\x86\xeb\x8e\x1b\xe2?'
tRp1563
sg35
g31
(g33
S'\x84\xc9\x92\x80C\x10\xe0?'
tRp1564
sg37
g31
(g33
S'4w\xb0\xa6f\xc1\x93?'
tRp1565
sg39
g31
(g33
S'\x0fm\x80\x08m\xd5\xaf?'
tRp1566
sg41
g31
(g33
S'G\x07\xf6\x03\xdd\x18\xe2?'
tRp1567
sssbag1
(g8
g3
NtRp1568
(dp1569
g11
F14.326224
sg12
F200.95602335961203
sg13
F0.68669999999999998
sg14
S'J0023+0923'
p1570
sg16
F0.014749999999999999
sg17
F0.61299221333122322
sg18
F5.6264769332758631
sg19
F0.003050203104480077
sg20
F746.89999999999998
sg21
F430.17142665958221
sg22
F8.1569719024261325
sg23
F0.01252
sg24
F9.3894380561320876
sg25
F-1.6655730185661424
sg26
(dp1571
S'GBT_Rcvr_800-Rcvr_1_2_logain'
p1572
(dp1573
g30
g31
(g33
S'\xafI\n\xca\x04\x1f\xf0?'
tRp1574
sg35
g31
(g33
S'\xedG\xc8L\xfa\xe6\xd7?'
tRp1575
sg37
g31
(g33
S'\xdc\xbf\xca\x88@\x08\x8d?'
tRp1576
sg39
g31
(g33
S'\xc5\xd8\xe3\xe2k\xe4\xd7?'
tRp1577
sg41
g31
(g33
S'\xf0?\x937\x9c\x1e\xf0?'
tRp1578
ssS'AO_Lwide_Swide_logain'
p1579
(dp1580
g30
g31
(g33
S'\x7f\x9b\x83\xd0\xb0\xf6\xcd?'
tRp1581
sg35
g31
(g33
S'\x08\xd3\x9e\x8b\xc5\xde\xb9?'
tRp1582
sg37
g31
(g33
S'\xdc\xbf\xca\x88@\x08\x8d?'
tRp1583
sg39
g31
(g33
S'\xd1\xe2*\xfc\x95\xb9\xb9?'
tRp1584
sg41
g31
(g33
S'~\xb4\x12\xe5\x9c\xe8\xcd?'
tRp1585
ssS'GBT_Rcvr_1_2_VLAS_logain'
p1586
(dp1587
g30
g31
(g33
S'\xf0c\xb3iQ8\xce?'
tRp1588
sg35
g31
(g33
S':\x16ey\xfd\x05\xc4?'
tRp1589
sg37
g31
(g33
S'\xd9b\x84\x05h0\x8b?'
tRp1590
sg39
g31
(g33
S'\x00\x83\x1f\xa8&\xfa\xc3?'
tRp1591
sg41
g31
(g33
S'(\xb4\xcc\xc6\x13,\xce?'
tRp1592
ssS'AO_430_Lwide_logain'
p1593
(dp1594
g30
g31
(g33
S'\xf5\x0e\x8a\x14>\x0c\xed?'
tRp1595
sg35
g31
(g33
S'V\xf7\x16\xf5\xce\x0e\xd2?'
tRp1596
sg37
g31
(g33
S'\xdc\xbf\xca\x88@\x08\x8d?'
tRp1597
sg39
g31
(g33
S'\t4W\xd0[\x0b\xd2?'
tRp1598
sg41
g31
(g33
S'\x93\x1d\xce\xeeU\x0b\xed?'
tRp1599
sssbag1
(g8
g3
NtRp1600
(dp1601
g11
F71.662998153457792
sg12
F147.20245375690197
sg13
F2.5106000000000002
sg14
S'J1012-4235'
p1602
sg16
F0.57609999999999995
sg17
F0.59919705823318159
sg18
F6.1036556705021541
sg19
F0.003101141245618947
sg20
F228.5
sg21
F463.85624669836011
sg22
F92.737545866848222
sg23
F0.00032040000000000004
sg24
F-42.598176466666672
sg25
F-0.3647062158422647
sg26
(dp1603
S'GBT_Rcvr_800-Rcvr_1_2_logain'
p1604
(dp1605
g30
g31
(g33
S'\xecWM\xe3Z\xac\xf5?'
tRp1606
sg35
g31
(g33
S'\xa0Z\xa3s\xa2\xa5\xe5?'
tRp1607
sg37
g31
(g33
S'\x80\x95\xa9\xac\x07\xd9\x88?'
tRp1608
sg39
g31
(g33
S'}wRq\xf2J\xe5?'
tRp1609
sg41
g31
(g33
S'lV\x88\xe9!\xac\xf5?'
tRp1610
ssS'AO_Lwide_Swide_logain'
p1611
(dp1612
g30
g31
(g33
S'\x80\x9d\xb0\xfa/\xfa\xe1?'
tRp1613
sg35
g31
(g33
S'\xb5\x1f\x1f\xfb?\xa9\xcf?'
tRp1614
sg37
g31
(g33
S'\x80\x95\xa9\xac\x07\xd9\x88?'
tRp1615
sg39
g31
(g33
S'\xb4\x82\xba\x10y\x8d\xcb?'
tRp1616
sg41
g31
(g33
S"\x92'\x042\x1d\xf9\xe1?"
tRp1617
ssS'GBT_Rcvr_1_2_VLAS_logain'
p1618
(dp1619
g30
g31
(g33
S'p\xba\xb5\xc02n\xef?'
tRp1620
sg35
g31
(g33
S'h\x9a\x1d\x07\nB\xe1?'
tRp1621
sg37
g31
(g33
S'(\xd3\xe1,1E\x87?'
tRp1622
sg39
g31
(g33
S'\x19\xfd;\xcd\xee\xcf\xe0?'
tRp1623
sg41
g31
(g33
S'\x99\xb9&\xeb\xa8m\xef?'
tRp1624
ssS'AO_430_Lwide_logain'
p1625
(dp1626
g30
g31
(g33
S'[7\x7f\xdeu0\xf4?'
tRp1627
sg35
g31
(g33
S'\x82"\x16\x0b\x11]\xdf?'
tRp1628
sg37
g31
(g33
S'\x80\x95\xa9\xac\x07\xd9\x88?'
tRp1629
sg39
g31
(g33
S'\xdc\t\xba\xbe\xc9_\xde?'
tRp1630
sg41
g31
(g33
S't\xe5\x96\xb480\xf4?'
tRp1631
sssbag1
(g8
g3
NtRp1632
(dp1633
g11
F38.777469000000004
sg12
F273.65777838861982
sg13
F1.7077
sg14
S'J0613-0200'
p1634
sg16
F0.096680000000000002
sg17
F4.2779241124400764
sg18
F4.6745796638202171
sg19
F0.0030618440409622503
sg20
F460.10000000000002
sg21
F331.91720527703825
sg22
F47.011806625268896
sg23
F0.0019100000000000002
sg24
F-2.0126818112952685
sg25
F-2.0172264753214741
sg26
(dp1635
S'GBT_Rcvr_800-Rcvr_1_2_logain'
p1636
(dp1637
g30
g31
(g33
S'9,\xff\xb4\xc5[\xc2?'
tRp1638
sg35
g31
(g33
S'\x8a\xb6L\\$3\xb3?'
tRp1639
sg37
g31
(g33
S'\x12\xe4\xedl\x8b\xf0\x90?'
tRp1640
sg39
g31
(g33
S'\x8b\x83z$\xab\xb8\xa5?'
tRp1641
sg41
g31
(g33
S'\x8a\x7fQ"h<\xc2?'
tRp1642
ssS'AO_Lwide_Swide_logain'
p1643
(dp1644
g30
g31
(g33
S'r\x88\xeb\xd1\xf1\x8a\xb1?'
tRp1645
sg35
g31
(g33
S'\xfb\x1e\xda\xf7i\xf0\xaf?'
tRp1646
sg37
g31
(g33
S'\x12\xe4\xedl\x8b\xf0\x90?'
tRp1647
sg39
g31
(g33
S'\x8d^\x85\xf0\xec\xdc\x85?'
tRp1648
sg41
g31
(g33
S'Z\x89M`\x1f\x06\xb1?'
tRp1649
ssS'GBT_Rcvr_1_2_VLAS_logain'
p1650
(dp1651
g30
g31
(g33
S'\xdaa0\xf5\xd5\x1e\xb1?'
tRp1652
sg35
g31
(g33
S'\xf3z\x0b\x8e.\x1b\xb0?'
tRp1653
sg37
g31
(g33
S'\xb4\x85\xd2\xa8w\xba\x8f?'
tRp1654
sg39
g31
(g33
S'3\x19\x85\xf5\xc8\xc0\x8c?'
tRp1655
sg41
g31
(g33
S'q\\\xf4\xff\x9c\xa7\xb0?'
tRp1656
ssS'AO_430_Lwide_logain'
p1657
(dp1658
g30
g31
(g33
S'\xae]\x8f\x14\xe9\xa3\xc3?'
tRp1659
sg35
g31
(g33
S'\x1c\xb0\xfbg\x07$\xb2?'
tRp1660
sg37
g31
(g33
S'\x12\xe4\xedl\x8b\xf0\x90?'
tRp1661
sg39
g31
(g33
S'\xccQ\x92\x9e\xe1\xc0\xa0?'
tRp1662
sg41
g31
(g33
S's\xc0\x97\xb9\x9a\x86\xc3?'
tRp1663
sssbag1
(g8
g3
NtRp1664
(dp1665
g11
F152.95643700000005
sg12
F98.218847780318256
sg13
F3.3654000000000002
sg14
S'J1747-4036'
p1666
sg16
F13.98
sg17
F3.9688750407801621
sg18
F2.1838133573670762
sg19
F0.0016456096144920427
sg20
F53.719999999999999
sg21
F277.45276434336182
sg22
F957.28085330025681
sg23
F1.3210000000000001e-05
sg24
F-40.615720358051867
sg25
F-2.7186453255532834
sg26
(dp1667
S'GBT_Rcvr_800-Rcvr_1_2_logain'
p1668
(dp1669
g30
g31
(g33
S'\x94fEsoA\x02@'
tRp1670
sg35
g31
(g33
S'\xd0+E_\xb3^\xed?'
tRp1671
sg37
g31
(g33
S'\x1f\x08\xf4v\xfaK\x84?'
tRp1672
sg39
g31
(g33
S'\xbd\x10|X\xd7h\xb0?'
tRp1673
sg41
g31
(g33
S'\xe4\x9d\xc8*dA\x02@'
tRp1674
ssS'AO_Lwide_Swide_logain'
p1675
(dp1676
g30
g31
(g33
S'\xd1q\xb1<^0\xf3?'
tRp1677
sg35
g31
(g33
S'/\x8aW\x19\xc8K\xed?'
tRp1678
sg37
g31
(g33
S'\x1f\x08\xf4v\xfaK\x84?'
tRp1679
sg39
g31
(g33
S'\xbc\x00\xd8Rw\t\x8b?'
tRp1680
sg41
g31
(g33
S'+\x91\x94L30\xf3?'
tRp1681
ssS'GBT_Rcvr_1_2_VLAS_logain'
p1682
(dp1683
g30
g31
(g33
S'\xf3:\x81 \xb9\x0c\xee?'
tRp1684
sg35
g31
(g33
S'T\xf5\x1e\xec\xeeJ\xed?'
tRp1685
sg37
g31
(g33
S'd\xab\xdf\xf0\x1a\x02\x83?'
tRp1686
sg39
g31
(g33
S'h\xd7\xf4\xb4Q`\x88?'
tRp1687
sg41
g31
(g33
S'\xa8\x0e\x18\xefX\x0c\xee?'
tRp1688
ssS'AO_430_Lwide_logain'
p1689
(dp1690
g30
g31
(g33
S'\xa0\xe7\xef:\xa5M\x01@'
tRp1691
sg35
g31
(g33
S'~\x99\xfe\xef\xe3_\xed?'
tRp1692
sg37
g31
(g33
S'\x1f\x08\xf4v\xfaK\x84?'
tRp1693
sg39
g31
(g33
S'(\xcb\xb1\xde;w\xaa?'
tRp1694
sg41
g31
(g33
S'M0zS\x99M\x01@'
tRp1695
sssbag1
(g8
g3
NtRp1696
(dp1697
g11
F9.0214449999999999
sg12
F584.05491710699346
sg13
F0.4113
sg14
S'J1012+5307'
p1698
sg16
F0.0071450000000000003
sg17
F5.1490790932489947
sg18
F3.6807325390546266
sg19
F0.0052557490209093989
sg20
F830.60000000000002
sg21
F637.30762520202381
sg22
F26.04354641229061
sg23
F0.025839999999999998
sg24
F53.121261516135299
sg25
F-1.5272828748547915
sg26
(dp1699
S'GBT_Rcvr_800-Rcvr_1_2_logain'
p1700
(dp1701
g30
g31
(g33
S'\x99\xe3\x15W\xc4\xdb\xd1?'
tRp1702
sg35
g31
(g33
S'V\x03A\x03\xfc\x85\xbd?'
tRp1703
sg37
g31
(g33
S'\xae\x90c:K\xbf\x98?'
tRp1704
sg39
g31
(g33
S'+\x8e\xf0m7<\xbb?'
tRp1705
sg41
g31
(g33
S'\x9a\xbez\x88\x96\xca\xd1?'
tRp1706
ssS'AO_Lwide_Swide_logain'
p1707
(dp1708
g30
g31
(g33
S' \xf9\x9dY\x9f\xc9\xb5?'
tRp1709
sg35
g31
(g33
S'5\x85\x95^\xa5Q\xab?'
tRp1710
sg37
g31
(g33
S'\xae\x90c:K\xbf\x98?'
tRp1711
sg39
g31
(g33
S'\xef\xccf0\xd3"\x9e?'
tRp1712
sg41
g31
(g33
S'\x00j\xd5\x7f\x06\xe4\xb4?'
tRp1713
ssS'GBT_Rcvr_1_2_VLAS_logain'
p1714
(dp1715
g30
g31
(g33
S'\x044\xf9Y\xdf\xc3\xb6?'
tRp1716
sg35
g31
(g33
S'\xf6u\xb9\xb3}\xe3\xb0?'
tRp1717
sg37
g31
(g33
S'\xa9\x140\x01\x17-\x97?'
tRp1718
sg39
g31
(g33
S'U\xcf\xe7\xb4:\xef\xa8?'
tRp1719
sg41
g31
(g33
S'\xfd\x90\xd9\xbd\xf4\x03\xb6?'
tRp1720
ssS'AO_430_Lwide_logain'
p1721
(dp1722
g30
g31
(g33
S'6\xe8\xb8\xcf\xc2\r\xce?'
tRp1723
sg35
g31
(g33
S'>\xdc]3\x0cc\xb7?'
tRp1724
sg37
g31
(g33
S'\xae\x90c:K\xbf\x98?'
tRp1725
sg39
g31
(g33
S'\x98\x80\xdb\x7f\x08l\xb4?'
tRp1726
sg41
g31
(g33
S'\xbb\xe3\xa2\xa7\xe5\xe4\xcd?'
tRp1727
sssbag1
(g8
g3
NtRp1728
(dp1729
g11
F11.217125999999999
sg12
F480.82554756315682
sg13
F0.63280000000000003
sg14
S'J1125+7819'
p1730
sg16
F0.0073140000000000002
sg17
F1.6145035356025634
sg18
F5.4162088382144331
sg19
F0.0042016091181073904
sg20
F1018
sg21
F659.92729460541523
sg22
F124.66785739647949
sg23
F0.025240000000000002
sg24
F78.335653191646188
sg25
F-1.9774501634733801
sg26
(dp1731
S'GBT_Rcvr_800-Rcvr_1_2_logain'
p1732
(dp1733
g30
g31
(g33
S'\xa0\x11\x86N\x9e+\xe3?'
tRp1734
sg35
g31
(g33
S'q\xe0-\x8b\x03l\xd1?'
tRp1735
sg37
g31
(g33
S'\xa0F\x0e]9t\x96?'
tRp1736
sg39
g31
(g33
S'\x86Mvx\xbb\xe4\xc8?'
tRp1737
sg41
g31
(g33
S'p\xabFlT(\xe3?'
tRp1738
ssS'AO_Lwide_Swide_logain'
p1739
(dp1740
g30
g31
(g33
S'\xc8\x17(K\x96\xab\xcc?'
tRp1741
sg35
g31
(g33
S'\x07|>\xe5_1\xc9?'
tRp1742
sg37
g31
(g33
S'\xa0F\x0e]9t\x96?'
tRp1743
sg39
g31
(g33
S'{\x05\xe6\xceTc\xa9?'
tRp1744
sg41
g31
(g33
S'\xbb\xa3\x8b\xd1T\x88\xcc?'
tRp1745
ssS'GBT_Rcvr_1_2_VLAS_logain'
p1746
(dp1747
g30
g31
(g33
S'\xc8\x11\xec R\xc9\xcb?'
tRp1748
sg35
g31
(g33
S'\xf2\xe5\xe9\xc3\xbc\xd4\xc9?'
tRp1749
sg37
g31
(g33
S'\xe1\xab\x8ezJ\x07\x95?'
tRp1750
sg39
g31
(g33
S'x\x05=8\x06\x12\xb1?'
tRp1751
sg41
g31
(g33
S']>S\xc6k\xa9\xcb?'
tRp1752
ssS'AO_430_Lwide_logain'
p1753
(dp1754
g30
g31
(g33
S'\x05\xeb\xfb$\xf3\xbd\xe2?'
tRp1755
sg35
g31
(g33
S'\xa7\x91\x8a\x0b\xfd\x02\xcf?'
tRp1756
sg37
g31
(g33
S'\xa0F\x0e]9t\x96?'
tRp1757
sg39
g31
(g33
S'D\xc9\x07\x0fQ*\xc3?'
tRp1758
sg41
g31
(g33
S'\xc8\x07\x0b\x01\x96\xba\xe2?'
tRp1759
sssbag1
(g8
g3
NtRp1760
(dp1761
g11
F104.500361
sg12
F224.25406933044769
sg13
F4.6406999999999998
sg14
S'B1953+29'
p1762
sg16
F1.411
sg17
F1.7324616794930965
sg18
F3.3459827683208503
sg19
F0.0061331665155521364
sg20
F198.5
sg21
F824.38672566517243
sg22
F330.3819930946413
sg23
F0.00013080000000000001
sg24
F29.144834417339428
sg25
F-2.0471388886909416
sg26
(dp1763
S'GBT_Rcvr_800-Rcvr_1_2_logain'
p1764
(dp1765
g30
g31
(g33
S'\xc0\xa2\xa8\n\xa3{\xf6?'
tRp1766
sg35
g31
(g33
S'j\xfe\xa1Q,\x17\xe7?'
tRp1767
sg37
g31
(g33
S'I\x01\x82\xe9E\xab\x8e?'
tRp1768
sg39
g31
(g33
S'^\xaa}:\xa0\xad\xd8?'
tRp1769
sg41
g31
(g33
S'\x99\xe5.^O{\xf6?'
tRp1770
ssS'AO_Lwide_Swide_logain'
p1771
(dp1772
g30
g31
(g33
S'\xaf\xc0I<8\xee\xe4?'
tRp1773
sg35
g31
(g33
S'\xae5h\x07\x89\xbd\xe3?'
tRp1774
sg37
g31
(g33
S'I\x01\x82\xe9E\xab\x8e?'
tRp1775
sg39
g31
(g33
S'e\xe4\x04\x1fc\xc1\xb7?'
tRp1776
sg41
g31
(g33
S'\xf6\x97\xf0\xad\xd0\xec\xe4?'
tRp1777
ssS'GBT_Rcvr_1_2_VLAS_logain'
p1778
(dp1779
g30
g31
(g33
S'J\xb5\x8f<^j\xe4?'
tRp1780
sg35
g31
(g33
S'\xa9\xb1j\xdf\x1c\xe0\xe3?'
tRp1781
sg37
g31
(g33
S'\xce\x81\nE\xd3\xb8\x8c?'
tRp1782
sg39
g31
(g33
S'\xb6\x14\xdf\x05*\x1d\xbe?'
tRp1783
sg41
g31
(g33
S'\xa4\xe9\xc0\xee\x1ai\xe4?'
tRp1784
ssS'AO_430_Lwide_logain'
p1785
(dp1786
g30
g31
(g33
S'\x9a\xea\xc6\xeax\xf6\xf7?'
tRp1787
sg35
g31
(g33
S'\xc5\xb4\xcfQq\xb5\xe5?'
tRp1788
sg37
g31
(g33
S'I\x01\x82\xe9E\xab\x8e?'
tRp1789
sg39
g31
(g33
S'\xecDr\x1f\x0c\xff\xd2?'
tRp1790
sg41
g31
(g33
S'J\xf41i*\xf6\xf7?'
tRp1791
sssbag1
(g8
g3
NtRp1792
(dp1793
g11
F60.623032999999992
sg12
F109.37726142277964
sg13
F1.7736000000000001
sg14
S'J1811-2405'
p1794
sg16
F2.0089999999999999
sg17
F2.9222937986964501
sg18
F2.5395083192537267
sg19
F0.0026605932755822031
sg20
F102.90000000000001
sg21
F312.29073020773251
sg22
F68.907674696351179
sg23
F9.1910000000000006e-05
sg24
F-24.088433411305555
sg25
F-1.8845950882441789
sg26
(dp1795
S'GBT_Rcvr_800-Rcvr_1_2_logain'
p1796
(dp1797
g30
g31
(g33
S'\x9b\x14\xde\xf8l*\xe4?'
tRp1798
sg35
g31
(g33
S'\x8aT\xc7pn7\xc6?'
tRp1799
sg37
g31
(g33
S'l}\x06\x1c1k\x85?'
tRp1800
sg39
g31
(g33
S'+\x82\xf6$nl\xc3?'
tRp1801
sg41
g31
(g33
S'g\x96\x8c\xf6\xb6)\xe4?'
tRp1802
ssS'AO_Lwide_Swide_logain'
p1803
(dp1804
g30
g31
(g33
S'@$\x8dA\xb7\x0f\xc5?'
tRp1805
sg35
g31
(g33
S';\x97\x90\xec|+\xb7?'
tRp1806
sg37
g31
(g33
S'l}\x06\x1c1k\x85?'
tRp1807
sg39
g31
(g33
S'\x10\x9e*g>[\xa1?'
tRp1808
sg41
g31
(g33
S'\x1a\x90\x13S\xd0\x04\xc5?'
tRp1809
ssS'GBT_Rcvr_1_2_VLAS_logain'
p1810
(dp1811
g30
g31
(g33
S'!b\xc6\x98\xc5\x8f\xbd?'
tRp1812
sg35
g31
(g33
S'\xfc\xaf\xd2\xd8\x08.\xb8?'
tRp1813
sg37
g31
(g33
S'k\xa5\xc6\xa7\x15\x0f\x84?'
tRp1814
sg39
g31
(g33
S'\x8b\xd9\xcag#H\xa6?'
tRp1815
sg41
g31
(g33
S'\x8c\x8d1;\x80t\xbd?'
tRp1816
ssS'AO_430_Lwide_logain'
p1817
(dp1818
g30
g31
(g33
S'\x88\xc6!\xb5\rJ\xe6?'
tRp1819
sg35
g31
(g33
S'\xaaz\xf5\x19hL\xc2?'
tRp1820
sg37
g31
(g33
S'l}\x06\x1c1k\x85?'
tRp1821
sg39
g31
(g33
S'\x11\xa9h\x03)b\xbd?'
tRp1822
sg41
g31
(g33
S'!\xf9z\niI\xe6?'
tRp1823
sssbag1
(g8
g3
NtRp1824
(dp1825
g11
F42.808
sg12
F132.47168036855521
sg13
F1.1047
sg14
S'J1751-2857'
p1826
sg16
F0.3836
sg17
F1.4138394825546985
sg18
F6.1800270227660175
sg19
F0.0039148731963689655
sg20
F185.80000000000001
sg21
F545.40542069978062
sg22
F83.457158632189802
sg23
F0.00048129999999999999
sg24
F-28.962916666666665
sg25
F-2.2194598134151833
sg26
(dp1827
S'GBT_Rcvr_800-Rcvr_1_2_logain'
p1828
(dp1829
g30
g31
(g33
S')\xca\xe0\x1du\xf4\xe9?'
tRp1830
sg35
g31
(g33
S'\x19\x83\x9a\xec\xd3#\xcf?'
tRp1831
sg37
g31
(g33
S'\x90\x15>\xf5\\\x92\x87?'
tRp1832
sg39
g31
(g33
S'V\xf6\x06\xf8\x9d\xdb\xca?'
tRp1833
sg41
g31
(g33
S's\xa3^\xd9\xc9\xf3\xe9?'
tRp1834
ssS'AO_Lwide_Swide_logain'
p1835
(dp1836
g30
g31
(g33
S'\xd0g\xb6E\xd12\xc5?'
tRp1837
sg35
g31
(g33
S'\xf8\xc8\xf3\xcb1\xa3\xc0?'
tRp1838
sg37
g31
(g33
S'\x90\x15>\xf5\\\x92\x87?'
tRp1839
sg39
g31
(g33
S'JKA\xe6\xc5Q\xa5?'
tRp1840
sg41
g31
(g33
S'z\xc5\xbf?\xb2%\xc5?'
tRp1841
ssS'GBT_Rcvr_1_2_VLAS_logain'
p1842
(dp1843
g30
g31
(g33
S'\xcb\xa4:\x15S\xcc\xc2?'
tRp1844
sg35
g31
(g33
S'\xa9Iw\xc5\x18\xbc\xc0?'
tRp1845
sg37
g31
(g33
S'x\xdc\xd2\x9aC\x13\x86?'
tRp1846
sg39
g31
(g33
S'N\xd4\xb3)G\x90\xa6?'
tRp1847
sg41
g31
(g33
S'+|\x9d_X\xbf\xc2?'
tRp1848
ssS'AO_430_Lwide_logain'
p1849
(dp1850
g30
g31
(g33
S'[\x1a\xb5,\xe8o\xe9?'
tRp1851
sg35
g31
(g33
S'\x80]\x83o\xcc\x19\xca?'
tRp1852
sg37
g31
(g33
S'\x90\x15>\xf5\\\x92\x87?'
tRp1853
sg39
g31
(g33
S'y@\xa4\x83r\xcd\xc4?'
tRp1854
sg41
g31
(g33
S'\xf1\x93\xa5k9o\xe9?'
tRp1855
sssbag1
(g8
g3
NtRp1856
(dp1857
g11
F25.087691
sg12
F230.79673696054471
sg13
F2.0004
sg14
S'J2033+1734'
p1858
sg16
F0.017569999999999999
sg17
F0.62603232127376518
sg18
F5.4004047434881022
sg19
F0.0059489575403285531
sg20
F1168
sg21
F861.432654548649
sg22
F380.96837791388742
sg23
F0.01051
sg24
F17.582466548082053
sg25
F-1.9944617485830969
sg26
(dp1859
S'GBT_Rcvr_800-Rcvr_1_2_logain'
p1860
(dp1861
g30
g31
(g33
S'%\x83\xd3\xda\x9b\xb2\x00@'
tRp1862
sg35
g31
(g33
S'\\"\x8eQ\x08\xa4\xee?'
tRp1863
sg37
g31
(g33
S'#\xc5\x9f)\xfb\x1c\x8f?'
tRp1864
sg39
g31
(g33
S'\xcb\x80\xa4\x10w(\xe5?'
tRp1865
sg41
g31
(g33
S'\xc6\xca\x0e\xde~\xb2\x00@'
tRp1866
ssS'AO_Lwide_Swide_logain'
p1867
(dp1868
g30
g31
(g33
S'L\xaf\xf2\xb6\xa5r\xe9?'
tRp1869
sg35
g31
(g33
S'5#\xabM\xba\xcb\xe6?'
tRp1870
sg37
g31
(g33
S'#\xc5\x9f)\xfb\x1c\x8f?'
tRp1871
sg39
g31
(g33
S'\x03\xd1k\x0f\xeaV\xc5?'
tRp1872
sg41
g31
(g33
S'\x93\xbbA^uq\xe9?'
tRp1873
ssS'GBT_Rcvr_1_2_VLAS_logain'
p1874
(dp1875
g30
g31
(g33
S'\x13\x18]\xc7o\xb3\xe8?'
tRp1876
sg35
g31
(g33
S'\xe2\xd6-*sD\xe7?'
tRp1877
sg37
g31
(g33
S"~'\xb5{P#\x8d?"
tRp1878
sg39
g31
(g33
S'\x06\x0f\xa9;#V\xcc?'
tRp1879
sg41
g31
(g33
S'b\xf7\x8b\xc7\\\xb2\xe8?'
tRp1880
ssS'AO_430_Lwide_logain'
p1881
(dp1882
g30
g31
(g33
S'\xfcK^\xa6}\xab\x00@'
tRp1883
sg35
g31
(g33
S'\xd56\xfe\xfe\x8f\x81\xeb?'
tRp1884
sg37
g31
(g33
S'#\xc5\x9f)\xfb\x1c\x8f?'
tRp1885
sg39
g31
(g33
S'\xf3\x9dz\xcfrJ\xe0?'
tRp1886
sg41
g31
(g33
S'\x1e\xd98\x9d`\xab\x00@'
tRp1887
sssbag1
(g8
g3
NtRp1888
(dp1889
g11
F59.960000000000001
sg12
F66.321207979940468
sg13
F1.6942999999999999
sg14
S'J1843-1113'
p1890
sg16
F1.046
sg17
F1.1168140577300756
sg18
F5.8218502745017195
sg19
F0.0018456662924245528
sg20
F139.30000000000001
sg21
F253.21766621354752
sg22
F41.782361027362498
sg23
F0.00017660000000000001
sg24
F-11.225292222222222
sg25
F-1.7490769738048202
sg26
(dp1891
S'GBT_Rcvr_800-Rcvr_1_2_logain'
p1892
(dp1893
g30
g31
(g33
S'J0?\xcc\x7f1\xde?'
tRp1894
sg35
g31
(g33
S'\xa76\x96\x95\x0c\xef\xc1?'
tRp1895
sg37
g31
(g33
S'\x14\x93\xc4\x1a\xb0\xad\x80?'
tRp1896
sg39
g31
(g33
S'bSj\xbd\xbe\x13\xc1?'
tRp1897
sg41
g31
(g33
S'\xda\x12\xc0\xf5X0\xde?'
tRp1898
ssS'AO_Lwide_Swide_logain'
p1899
(dp1900
g30
g31
(g33
S'\xab\x97w\xf3w\xc4\xbb?'
tRp1901
sg35
g31
(g33
S'\x10\xd3\xc0(i[\xab?'
tRp1902
sg37
g31
(g33
S'\x14\x93\xc4\x1a\xb0\xad\x80?'
tRp1903
sg39
g31
(g33
S'a\x1d\xfbw\xdd\x9b\xa0?'
tRp1904
sg41
g31
(g33
S'\x00\xc5\xe3\x8ag\xb0\xbb?'
tRp1905
ssS'GBT_Rcvr_1_2_VLAS_logain'
p1906
(dp1907
g30
g31
(g33
S'W\xc2\x93\x18$\xf8\xb5?'
tRp1908
sg35
g31
(g33
S'\x11N6\x91:\x07\xb0?'
tRp1909
sg37
g31
(g33
S'\x0e\x14@1>=\x7f?'
tRp1910
sg39
g31
(g33
S'\x88\xd2[di\x95\xa7?'
tRp1911
sg41
g31
(g33
S'@\xda\xde\xfc\xe2\xe1\xb5?'
tRp1912
ssS'AO_430_Lwide_logain'
p1913
(dp1914
g30
g31
(g33
S'\x12\x9a#\xa7SH\xe2?'
tRp1915
sg35
g31
(g33
S'dj\x98\xfd\xeb\xfc\xbb?'
tRp1916
sg37
g31
(g33
S'\x14\x93\xc4\x1a\xb0\xad\x80?'
tRp1917
sg39
g31
(g33
S'u\x14\xca!\xc5\xac\xb9?'
tRp1918
sg41
g31
(g33
S'?\xee\xef\xec\xd9G\xe2?'
tRp1919
sssbag1
(g8
g3
NtRp1920
(dp1921
g11
F10.769483000000001
sg12
F89.79077095941183
sg13
F0.68089999999999995
sg14
S'J2234+0611'
p1922
sg16
F0.0045439999999999994
sg17
F0.44337654030107809
sg18
F6.3388821294621698
sg19
F0.0035765816319137632
sg20
F1340
sg21
F397.19867094359461
sg22
F19.625042091363312
sg23
F0.040629999999999999
sg24
F6.1911866819724857
sg25
F-0.87771501039629396
sg26
(dp1923
S'GBT_Rcvr_800-Rcvr_1_2_logain'
p1924
(dp1925
g30
g31
(g33
S'\xb9E\x12e\x8c(\xf5?'
tRp1926
sg35
g31
(g33
S'p\xf8r\xcaf-\xe3?'
tRp1927
sg37
g31
(g33
S'\xd0\x116>\x0ch\x83?'
tRp1928
sg39
g31
(g33
S'\xb6DI@)(\xe3?'
tRp1929
sg41
g31
(g33
S'y%\x96\xcbh(\xf5?'
tRp1930
ssS'AO_Lwide_Swide_logain'
p1931
(dp1932
g30
g31
(g33
S'\x98h\xf1\xf05\r\xdc?'
tRp1933
sg35
g31
(g33
S'\x80\x10V\xb9`\x90\xc7?'
tRp1934
sg37
g31
(g33
S'\xd0\x116>\x0ch\x83?'
tRp1935
sg39
g31
(g33
S'\xd0\x15a\xc5\xd9K\xc7?'
tRp1936
sg41
g31
(g33
S'z\x1a\x86E\x88\x0b\xdc?'
tRp1937
ssS'GBT_Rcvr_1_2_VLAS_logain'
p1938
(dp1939
g30
g31
(g33
S'h}w\x88\xf9,\xe4?'
tRp1940
sg35
g31
(g33
S'\xb0\xa5\xb6N!\xc5\xd8?'
tRp1941
sg37
g31
(g33
S"F\xc7\xd1'\xa5,\x82?"
tRp1942
sg39
g31
(g33
S'\x9c\x8b\x03\xd2\xe8\xb4\xd8?'
tRp1943
sg41
g31
(g33
S'V\xb3\xb9\x8dv,\xe4?'
tRp1944
ssS'AO_430_Lwide_logain'
p1945
(dp1946
g30
g31
(g33
S'\xeat\xdcV\xf3n\xea?'
tRp1947
sg35
g31
(g33
S'\xbc\xab\xf2\x18\x81\xe0\xdb?'
tRp1948
sg37
g31
(g33
S'\xd0\x116>\x0ch\x83?'
tRp1949
sg39
g31
(g33
S'\x17M\r\x14\x15\xd2\xdb?'
tRp1950
sg41
g31
(g33
S'\x1b\x1a\x07[\x81n\xea?'
tRp1951
sssbag1
(g8
g3
NtRp1952
(dp1953
g11
F13.724998999999999
sg12
F344.2931645782412
sg13
F1.1778999999999999
sg14
S'J2302+4442'
p1954
sg16
F0.0049829999999999996
sg17
F2.453237331355985
sg18
F2.2357569113076776
sg19
F0.0051923246484279258
sg20
F1683
sg21
F645.98881016926475
sg22
F270.74211503419383
sg23
F0.03705
sg24
F44.702721450131229
sg25
F-1.5019557909592385
sg26
(dp1955
S'GBT_Rcvr_800-Rcvr_1_2_logain'
p1956
(dp1957
g30
g31
(g33
S'i)\x19\xe3\x1f\xc4\xf1?'
tRp1958
sg35
g31
(g33
S'C\x14\xf2\x96\xf72\xe3?'
tRp1959
sg37
g31
(g33
S'\x0f \nD\x1e\x00\x93?'
tRp1960
sg39
g31
(g33
S'8$\xe7\x9a\x14\xaa\xd8?'
tRp1961
sg41
g31
(g33
S'P>\xa9O}\xc3\xf1?'
tRp1962
ssS'AO_Lwide_Swide_logain'
p1963
(dp1964
g30
g31
(g33
S'\x90\xd9r-\xe6\xb4\xe0?'
tRp1965
sg35
g31
(g33
S'\xb8}\xfbh-3\xde?'
tRp1966
sg37
g31
(g33
S'\x0f \nD\x1e\x00\x93?'
tRp1967
sg39
g31
(g33
S'\xe8\x03\x00z+\x1d\xbb?'
tRp1968
sg41
g31
(g33
S'sb\xb5v2\xb2\xe0?'
tRp1969
ssS'GBT_Rcvr_1_2_VLAS_logain'
p1970
(dp1971
g30
g31
(g33
S'\xf7\x0f\x08\xe1\x98\x04\xe1?'
tRp1972
sg35
g31
(g33
S'\xc6\xdf(\x8a\xde\x83\xdf?'
tRp1973
sg37
g31
(g33
S'~k\xb4JP\xcb\x91?'
tRp1974
sg39
g31
(g33
S'\x8d\x81\x8f\xe3\x97\x8c\xc6?'
tRp1975
sg41
g31
(g33
S'\xd9\x8fPUE\x02\xe1?'
tRp1976
ssS'AO_430_Lwide_logain'
p1977
(dp1978
g30
g31
(g33
S'\x8a\x01\xf3\xfd\\\xf8\xef?'
tRp1979
sg35
g31
(g33
S'n\xfc.G\xd0\\\xe1?'
tRp1980
sg37
g31
(g33
S'\x0f \nD\x1e\x00\x93?'
tRp1981
sg39
g31
(g33
S'p3\xcd\xcf\xa0n\xd2?'
tRp1982
sg41
g31
(g33
S'\xb8\xc8=\x9b\xf3\xf6\xef?'
tRp1983
sssbag1
(g8
g3
NtRp1984
(dp1985
g11
F10.391601
sg12
F41.037330744290642
sg13
F0.4572
sg14
S'J1909-3744'
p1986
sg16
F0.0091389999999999996
sg17
F1.9627258785566213
sg18
F7.3320655961662409
sg19
F0.0029471080244818748
sg20
F774.20000000000005
sg21
F260.67343390780411
sg22
F12.574177566189125
sg23
F0.020199999999999999
sg24
F-37.736554205642975
sg25
F-1.9162813123545903
sg26
(dp1987
S'GBT_Rcvr_800-Rcvr_1_2_logain'
p1988
(dp1989
g30
g31
(g33
S'\\M\xa5;\x8dO\xc3?'
tRp1990
sg35
g31
(g33
S'\xd5mk\x9du\xef\xaa?'
tRp1991
sg37
g31
(g33
S'\x10\xfb\x9c\xe57=z?'
tRp1992
sg39
g31
(g33
S'})(\xf2*\xa3\xa9?'
tRp1993
sg41
g31
(g33
S'\x84\x0b\xf0\xcf\x17K\xc3?'
tRp1994
ssS'AO_Lwide_Swide_logain'
p1995
(dp1996
g30
g31
(g33
S'\xb0-\xdb,\xdd\x94\xa1?'
tRp1997
sg35
g31
(g33
S'\xbd&\x7f\xefs\xf6\x94?'
tRp1998
sg37
g31
(g33
S'\x10\xfb\x9c\xe57=z?'
tRp1999
sg39
g31
(g33
S'\x00V\xf6\xf0!\xe2\x89?'
tRp2000
sg41
g31
(g33
S'\x03`#\xb0\xd9E\xa1?'
tRp2001
ssS'GBT_Rcvr_1_2_VLAS_logain'
p2002
(dp2003
g30
g31
(g33
S'\xb4\x97\xb7\xfc\xdf-\xa0?'
tRp2004
sg35
g31
(g33
S'\x03\x8b\xdf\x07Z.\x98?'
tRp2005
sg37
g31
(g33
S'x\xc3Et\xc4\x92x?'
tRp2006
sg39
g31
(g33
S'\x9f\x96\x87\x00\xe0\xb2\x91?'
tRp2007
sg41
g31
(g33
S'\x17Yo\t\x17\xc5\x9f?'
tRp2008
ssS'AO_430_Lwide_logain'
p2009
(dp2010
g30
g31
(g33
S'5 \xaf\xe3ix\xc3?'
tRp2011
sg35
g31
(g33
S'\xce>],\x82H\xa5?'
tRp2012
sg37
g31
(g33
S'\x10\xfb\x9c\xe57=z?'
tRp2013
sg39
g31
(g33
S'.\xde\xe3g\x1d\x9c\xa3?'
tRp2014
sg41
g31
(g33
S'p\xd1\x94\xd5\xfds\xc3?'
tRp2015
sssbag1
(g8
g3
NtRp2016
(dp2017
g11
F149.6258
sg12
F170.09911225181924
sg13
F2.9330000000000003
sg14
S'J1802-2124'
p2018
sg16
F80.019999999999996
sg17
F2.2420827827471368
sg18
F7.7246083876094769
sg19
F0.012647593586522718
sg20
F20.960000000000001
sg21
F985.57707051420198
sg22
F107.16244071864614
sg23
F2.3069999999999997e-06
sg24
F-21.401013611111111
sg25
F-2.3996192247305146
sg26
(dp2019
S'GBT_Rcvr_800-Rcvr_1_2_logain'
p2020
(dp2021
g30
g31
(g33
S'\xbf\xf1\xb0\x15\xcf\x16%@'
tRp2022
sg35
g31
(g33
S'\xb7\xf7\xce\x95Qt\xd5?'
tRp2023
sg37
g31
(g33
S'2{\xd8 \xdf\xb5\x8a?'
tRp2024
sg39
g31
(g33
S'}\x0b\x8aE\xdfL\xc6?'
tRp2025
sg41
g31
(g33
S'\xcb\xc3\x0c\x07\xce\x16%@'
tRp2026
ssS'AO_Lwide_Swide_logain'
p2027
(dp2028
g30
g31
(g33
S'\x01\xee\xe0y\xdd\x10\x11@'
tRp2029
sg35
g31
(g33
S'*\xe6\x0b\x98\xe2]\xd2?'
tRp2030
sg37
g31
(g33
S'2{\xd8 \xdf\xb5\x8a?'
tRp2031
sg39
g31
(g33
S'\xc2\xe5\xca6\xfd\n\xa1?'
tRp2032
sg41
g31
(g33
S'W\x96\x19@\xd8\x10\x11@'
tRp2033
ssS'GBT_Rcvr_1_2_VLAS_logain'
p2034
(dp2035
g30
g31
(g33
S'\xb9\xa9\x9d0?A\xf3?'
tRp2036
sg35
g31
(g33
S'\x81uF*5P\xd2?'
tRp2037
sg37
g31
(g33
S'\x06\xa9u\xc5\xc2\x03\x89?'
tRp2038
sg39
g31
(g33
S'\xf5\xb2\xf7\x116\x88\xa0?'
tRp2039
sg41
g31
(g33
S"'^z1\xfe@\xf3?"
tRp2040
ssS'AO_430_Lwide_logain'
p2041
(dp2042
g30
g31
(g33
S'Q\xf8\xe3h\xc6\xe7#@'
tRp2043
sg35
g31
(g33
S'\x82\x16\xbe\xc7O\xdb\xd4?'
tRp2044
sg37
g31
(g33
S'2{\xd8 \xdf\xb5\x8a?'
tRp2045
sg39
g31
(g33
S'\xe1uG\xe3H\x83\xc1?'
tRp2046
sg41
g31
(g33
S":\x9e'J\xc5\xe7#@"
tRp2047
sssbag1
(g8
g3
NtRp2048
(dp2049
g11
F14.126382999999999
sg12
F94.152515113000788
sg13
F0.93599999999999994
sg14
S'J1630+3734'
p2050
sg16
F0.017430000000000001
sg17
F1.0368327815900795
sg18
F2.2583167767745129
sg19
F0.0033181121293967891
sg20
F802.20000000000005
sg21
F243.05412511685736
sg22
F59.316084521190497
sg23
F0.01059
sg24
F37.578360357333352
sg25
F-1.830728043420768
sg26
(dp2051
S'GBT_Rcvr_800-Rcvr_1_2_logain'
p2052
(dp2053
g30
g31
(g33
S'z}i\xe8\xd3\r\xea?'
tRp2054
sg35
g31
(g33
S'O\xee\xe1\xac\x8d\x1c\xd3?'
tRp2055
sg37
g31
(g33
S'9\xac\x95eH\xdf\x83?'
tRp2056
sg39
g31
(g33
S'\xb5nn\r!g\xd2?'
tRp2057
sg41
g31
(g33
S'\xae?~\xa5Z\r\xea?'
tRp2058
ssS'AO_Lwide_Swide_logain'
p2059
(dp2060
g30
g31
(g33
S'M\xf9f/\xab\xaf\xc8?'
tRp2061
sg35
g31
(g33
S'aTR~\x995\xbc?'
tRp2062
sg37
g31
(g33
S'9\xac\x95eH\xdf\x83?'
tRp2063
sg39
g31
(g33
S"\xbd\xd3\x97\xea'@\xb3?"
tRp2064
sg41
g31
(g33
S'\x9d\x92\xd8F\xaa\xa7\xc8?'
tRp2065
ssS'GBT_Rcvr_1_2_VLAS_logain'
p2066
(dp2067
g30
g31
(g33
S'L\xed|\x08\xc2n\xc7?'
tRp2068
sg35
g31
(g33
S'`#\xcf\x12\xfdE\xc1?'
tRp2069
sg37
g31
(g33
S'3\xcd\x0erO\x9c\x82?'
tRp2070
sg39
g31
(g33
S'&=\x99\xd3g\xb8\xbb?'
tRp2071
sg41
g31
(g33
S'\x88\xc8\x93\xeb\\g\xc7?'
tRp2072
ssS'AO_430_Lwide_logain'
p2073
(dp2074
g30
g31
(g33
S'\xf8\x19O\x92\x92\xad\xe8?'
tRp2075
sg35
g31
(g33
S'V\xfa\\\x86\xa3\xe8\xcd?'
tRp2076
sg37
g31
(g33
S'9\xac\x95eH\xdf\x83?'
tRp2077
sg39
g31
(g33
S'\xf7\xf3W7\xe0\x12\xcc?'
tRp2078
sg41
g31
(g33
S'\x9f\x94]\x8c\x12\xad\xe8?'
tRp2079
sssbag1
(g8
g3
NtRp2080
(dp2081
g11
F71.021846999999994
sg12
F37.006975524259438
sg13
F3.528
sg14
S'B1937+21'
p2082
sg16
F0.86819999999999997
sg17
F39.580387663275673
sg18
F3.6367449194684589
sg19
F0.0015578065398454445
sg20
F220.69999999999999
sg21
F144.86726219152089
sg22
F16.994900550095466
sg23
F0.00021259999999999999
sg24
F21.582914203821229
sg25
F-3.1272027872980552
sg26
(dp2083
S'GBT_Rcvr_800-Rcvr_1_2_logain'
p2084
(dp2085
g30
g31
(g33
S'\x07\x96\xa9S\xf1{\xc6?'
tRp2086
sg35
g31
(g33
S'\xa2jsbZh\x91?'
tRp2087
sg37
g31
(g33
S'h\x85\x05\x0b\xd7\xeax?'
tRp2088
sg39
g31
(g33
S'\x82\x0b\x16\xae\x07yZ?'
tRp2089
sg41
g31
(g33
S'\t9\x1ek}x\xc6?'
tRp2090
ssS'AO_Lwide_Swide_logain'
p2091
(dp2092
g30
g31
(g33
S'=P\xea\xe0\x8f\x7f\xa8?'
tRp2093
sg35
g31
(g33
S'\xb8\xa0\xc5~\xab\x83\x90?'
tRp2094
sg37
g31
(g33
S'h\x85\x05\x0b\xd7\xeax?'
tRp2095
sg39
g31
(g33
S'\xce&\xf3\xb2\xac\n4?'
tRp2096
sg41
g31
(g33
S'\x1fy\xbd\x1b\xabL\xa8?'
tRp2097
ssS'GBT_Rcvr_1_2_VLAS_logain'
p2098
(dp2099
g30
g31
(g33
S'.\x89\xecf\xd8A\x93?'
tRp2100
sg35
g31
(g33
S'\rz\xc4\x94"2\x90?'
tRp2101
sg37
g31
(g33
S'\xd094\x16\xdfUw?'
tRp2102
sg39
g31
(g33
S'\xd3\xb4Xk\xee\x8c-?'
tRp2103
sg41
g31
(g33
S'Y\x9d\xee\xfc.Z\x92?'
tRp2104
ssS'AO_430_Lwide_logain'
p2105
(dp2106
g30
g31
(g33
S'\xc2y{M\xc9\xb8\xdc?'
tRp2107
sg35
g31
(g33
S'\x18\xe0lLT\xf8\x92?'
tRp2108
sg37
g31
(g33
S'h\x85\x05\x0b\xd7\xeax?'
tRp2109
sg39
g31
(g33
S'\x82\xea\x13\xb6\x9c\x03V?'
tRp2110
sg41
g31
(g33
S'\xb1D;\\\x1c\xb8\xdc?'
tRp2111
sssbag1
(g8
g3
NtRp2112
(dp2113
g11
F9.5921620000000001
sg12
F115.61201417165731
sg13
F0.43519999999999998
sg14
S'J0125-2327'
p2114
sg16
F0.0062709999999999997
sg17
F2.8094962519386955
sg18
F5.6988397132376161
sg19
F0.0036753748844617689
sg20
F911.89999999999998
sg21
F468.6424471045828
sg22
F72.835568928144099
sg23
F0.029439999999999997
sg24
F-23.45227083413889
sg25
F-0.38275683056518939
sg26
(dp2115
S'GBT_Rcvr_800-Rcvr_1_2_logain'
p2116
(dp2117
g30
g31
(g33
S'jC\x0f\xb0\x90^\xd4?'
tRp2118
sg35
g31
(g33
S'5e\xad\x01en\xc7?'
tRp2119
sg37
g31
(g33
S'\xf8:\xef\xa4M\x05\x86?'
tRp2120
sg39
g31
(g33
S'\xc8\x8f\x9a\xd7<F\xc3?'
tRp2121
sg41
g31
(g33
S'f?d\xae\x96[\xd4?'
tRp2122
ssS'AO_Lwide_Swide_logain'
p2123
(dp2124
g30
g31
(g33
S'\x90\xc0?\x1c\xfe\xc1\xc4?'
tRp2125
sg35
g31
(g33
S'\xffMX\x10Bo\xbd?'
tRp2126
sg37
g31
(g33
S'\xf8:\xef\xa4M\x05\x86?'
tRp2127
sg39
g31
(g33
S'3[\xe5F\xe8\x03\xa9?'
tRp2128
sg41
g31
(g33
S'\xff\xed\xb1\xacL\xb6\xc4?'
tRp2129
ssS'GBT_Rcvr_1_2_VLAS_logain'
p2130
(dp2131
g30
g31
(g33
S'X\x18\xd6\x1f~/\xcf?'
tRp2132
sg35
g31
(g33
S'8Z\x98\x0cS9\xc4?'
tRp2133
sg37
g31
(g33
S'\xb33<\x7fi\x9f\x84?'
tRp2134
sg39
g31
(g33
S'\xfa\xe9\xed\xe7\x95n\xbe?'
tRp2135
sg41
g31
(g33
S'\xd5\x13\xaa\xc3\xab(\xcf?'
tRp2136
ssS'AO_430_Lwide_logain'
p2137
(dp2138
g30
g31
(g33
S'\x05\xab6\xc2\xc5\xc3\xc7?'
tRp2139
sg35
g31
(g33
S'qI\xbdoV*\xc3?'
tRp2140
sg37
g31
(g33
S'\xf8:\xef\xa4M\x05\x86?'
tRp2141
sg39
g31
(g33
S'\xf0\xc3\x9d\x06\xdc\x8d\xbb?'
tRp2142
sg41
g31
(g33
S'\xfc\x0e\xf5\xc3\x8f\xb9\xc7?'
tRp2143
sssbag1
(g8
g3
NtRp2144
(dp2145
g11
F38.071005999999997
sg12
F132.76721352118068
sg13
F2.3214000000000001
sg14
S'J1910+1256'
p2146
sg16
F0.0499
sg17
F0.97999999999999998
sg18
F6.226951399635638
sg19
F0.0049835839423470465
sg20
F746.60000000000002
sg21
F633.9257405728539
sg22
F84.307155107573237
sg23
F0.0037000000000000002
sg24
F12.940630249941485
sg25
F-1.6599999999999999
sg26
(dp2147
S'GBT_Rcvr_800-Rcvr_1_2_logain'
p2148
(dp2149
g30
g31
(g33
S'\x97\xc3N\x04\xaa?\xf1?'
tRp2150
sg35
g31
(g33
S'\xf7\xab.k\x19p\xd8?'
tRp2151
sg37
g31
(g33
S"C\xa9e'\x17\x99\x87?"
tRp2152
sg39
g31
(g33
S'\xd3\xf9}]\xd2\xb9\xd6?'
tRp2153
sg41
g31
(g33
S'4\xf0%ri?\xf1?'
tRp2154
ssS'AO_Lwide_Swide_logain'
p2155
(dp2156
g30
g31
(g33
S'1\xcb\x1fQ\xb6>\xd0?'
tRp2157
sg35
g31
(g33
S'2\xc2}\x15\xc0Q\xc5?'
tRp2158
sg37
g31
(g33
S"C\xa9e'\x17\x99\x87?"
tRp2159
sg39
g31
(g33
S'#\x95ua\x80\xf7\xb6?'
tRp2160
sg41
g31
(g33
S'\x1d\x18X\xd0l:\xd0?'
tRp2161
ssS'GBT_Rcvr_1_2_VLAS_logain'
p2162
(dp2163
g30
g31
(g33
S'\x0c\x8a\x84,\xb4\xe9\xcf?'
tRp2164
sg35
g31
(g33
S'M\xf3h\x01%\xe1\xc8?'
tRp2165
sg37
g31
(g33
S'\xd9\xf6\x06w\x90\x19\x86?'
tRp2166
sg39
g31
(g33
S'\x8b\xd0\xe5\x97}8\xc1?'
tRp2167
sg41
g31
(g33
S'\xf7~\xffN\x0c\xe2\xcf?'
tRp2168
ssS'AO_430_Lwide_logain'
p2169
(dp2170
g30
g31
(g33
S'D\xa6\xdc*K`\xf1?'
tRp2171
sg35
g31
(g33
S'\x90\xceg\xc9\x19?\xd3?'
tRp2172
sg37
g31
(g33
S"C\xa9e'\x17\x99\x87?"
tRp2173
sg39
g31
(g33
S'\xcdW\x97\xff<\x04\xd1?'
tRp2174
sg41
g31
(g33
S'\xfer\xf6\x11\x0b`\xf1?'
tRp2175
sssbag1
(g8
g3
NtRp2176
(dp2177
g11
F110.20933500000001
sg12
F221.27802113746398
sg13
F5.1553000000000004
sg14
S'J1946+3417'
p2178
sg16
F1.2770000000000001
sg17
F1.4080747060941383
sg18
F4.4106432970691838
sg19
F0.0031701391788565162
sg20
F219.90000000000001
sg21
F478.3012882309182
sg22
F197.56454131542691
sg23
F0.00014460000000000002
sg24
F34.287413467583328
sg25
F-1.3302251466158934
sg26
(dp2179
S'GBT_Rcvr_800-Rcvr_1_2_logain'
p2180
(dp2181
g30
g31
(g33
S'\x10R\xd6\xf0\x9a\xe1\xea?'
tRp2182
sg35
g31
(g33
S'\xd6\xbc\xfb\xa2\xaf\x98\xd8?'
tRp2183
sg37
g31
(g33
S'H\xb1\xee\xa0\x00w\x8e?'
tRp2184
sg39
g31
(g33
S'gdUx\xb4\xf9\xd1?'
tRp2185
sg41
g31
(g33
S'G\xe9\xb2\xb5\x86\xe0\xea?'
tRp2186
ssS'AO_Lwide_Swide_logain'
p2187
(dp2188
g30
g31
(g33
S':\xed:\x90\xe25\xd5?'
tRp2189
sg35
g31
(g33
S'>f\x08\x01\xc7\x83\xd1?'
tRp2190
sg37
g31
(g33
S'H\xb1\xee\xa0\x00w\x8e?'
tRp2191
sg39
g31
(g33
S'3\x06\xb0\x80\xd8\x06\xb4?'
tRp2192
sg41
g31
(g33
S'\x8e\xbc.\xa2i0\xd5?'
tRp2193
ssS'GBT_Rcvr_1_2_VLAS_logain'
p2194
(dp2195
g30
g31
(g33
S'\x82\x99 \x01\xc4\xaf\xd5?'
tRp2196
sg35
g31
(g33
S'c\x10\x86n,\xfd\xd2?'
tRp2197
sg37
g31
(g33
S'\x00\xdcz\x83\xdf\x87\x8c?'
tRp2198
sg39
g31
(g33
S'\xe8\xeb\xc4\x94\xb7\xc4\xc1?'
tRp2199
sg41
g31
(g33
S'\xd6k a\x12\xab\xd5?'
tRp2200
ssS'AO_430_Lwide_logain'
p2201
(dp2202
g30
g31
(g33
S'q\x98\x8f\xbd!`\xf8?'
tRp2203
sg35
g31
(g33
S'\xdd\x12> \xfai\xd5?'
tRp2204
sg37
g31
(g33
S'H\xb1\xee\xa0\x00w\x8e?'
tRp2205
sg39
g31
(g33
S'\x1f\xd0\xb2\xf9-\x8b\xca?'
tRp2206
sg41
g31
(g33
S'\x18\xd3~\x96\xd5_\xf8?'
tRp2207
sssbag1
(g8
g3
NtRp2208
(dp2209
g11
F62.404720999999995
sg12
F314.58168469922919
sg13
F2.4171999999999998
sg14
S'J1643-1224'
p2210
sg16
F0.53510000000000002
sg17
F8.6439075414744444
sg18
F5.1551719979160806
sg19
F0.0046216414546000574
sg20
F232.69999999999999
sg21
F976.50668006088199
sg22
F25.896318202881236
sg23
F0.00034500000000000004
sg24
F-12.416491104381025
sg25
F-1.8426112327950133
sg26
(dp2211
S'GBT_Rcvr_800-Rcvr_1_2_logain'
p2212
(dp2213
g30
g31
(g33
S'(y\xd1\xc4\xe1\x97\xcc?'
tRp2214
sg35
g31
(g33
S'*S\xfdw\x10@\xb3?'
tRp2215
sg37
g31
(g33
S'\xb7mm\x0f\x81)\x92?'
tRp2216
sg39
g31
(g33
S'\x17\\E\xb8)\x03\xb0?'
tRp2217
sg41
g31
(g33
S'\x8a\x0b\xdd\xce\xc5\x80\xcc?'
tRp2218
ssS'AO_Lwide_Swide_logain'
p2219
(dp2220
g30
g31
(g33
S'%\xa3Q\x91\xb2\xa2\xb1?'
tRp2221
sg35
g31
(g33
S'\x9f\x9fq\xbbi\xf2\xa6?'
tRp2222
sg37
g31
(g33
S'\xb7mm\x0f\x81)\x92?'
tRp2223
sg39
g31
(g33
S'\xba\x19S\xaeoi\x90?'
tRp2224
sg41
g31
(g33
S'\xf0\x16\xd2\x1a\x7f\n\xb1?'
tRp2225
ssS'GBT_Rcvr_1_2_VLAS_logain'
p2226
(dp2227
g30
g31
(g33
S't\xd5\x1f\x81\x07|\xad?'
tRp2228
sg35
g31
(g33
S'\x12\xc5\xcd\x1a\xa3?\xa8?'
tRp2229
sg37
g31
(g33
S'\x1c3\xd2\x18S\x02\x91?'
tRp2230
sg39
g31
(g33
S'\xd4knO\nB\x97?'
tRp2231
sg41
g31
(g33
S's`\xa2Z8;\xac?'
tRp2232
ssS'AO_430_Lwide_logain'
p2233
(dp2234
g30
g31
(g33
S'\x80\x9bc\xac\xe3\x96\xd8?'
tRp2235
sg35
g31
(g33
S'\x87\x0c>\xa0\x8cB\xb0?'
tRp2236
sg37
g31
(g33
S'\xb7mm\x0f\x81)\x92?'
tRp2237
sg39
g31
(g33
S'\xe6\x98~\x95\xb3b\xa8?'
tRp2238
sg41
g31
(g33
S'\x807\xc2\xa8-\x90\xd8?'
tRp2239
sssbag1
(g8
g3
NtRp2240
(dp2241
g11
F13.568770000000001
sg12
F207.18816690002819
sg13
F0.52859999999999996
sg14
S'J1455-3330'
p2242
sg16
F0.0056689999999999996
sg17
F1.4810740844716788
sg18
F5.5172312188987647
sg19
F0.0079872048061043303
sg20
F1057
sg21
F996.90374431130738
sg22
F101.22853398864058
sg23
F0.032570000000000002
sg24
F-33.51517225331861
sg25
F-1.7935761793788749
sg26
(dp2243
S'GBT_Rcvr_800-Rcvr_1_2_logain'
p2244
(dp2245
g30
g31
(g33
S'0\xcf\xe3ny\x88\xf0?'
tRp2246
sg35
g31
(g33
S'\xc4#~\xa1ec\xda?'
tRp2247
sg37
g31
(g33
S'7?#Q\x9ez\x8d?'
tRp2248
sg39
g31
(g33
S'N\xb7\x1f\xc9\xcf\x95\xd6?'
tRp2249
sg41
g31
(g33
S'\xddJ\xedM\x10\x88\xf0?'
tRp2250
ssS'AO_Lwide_Swide_logain'
p2251
(dp2252
g30
g31
(g33
S'\x00\x02\x98CXY\xd3?'
tRp2253
sg35
g31
(g33
S'\xdb\xfe\x8bH\xef\xb5\xcd?'
tRp2254
sg37
g31
(g33
S'7?#Q\x9ez\x8d?'
tRp2255
sg39
g31
(g33
S'\x1c\xb62\xc4\xdbx\xb7?'
tRp2256
sg41
g31
(g33
S'\xaa\x04{@\xbaS\xd3?'
tRp2257
ssS'GBT_Rcvr_1_2_VLAS_logain'
p2258
(dp2259
g30
g31
(g33
S'\x1f\xb2&K\x96\xd6\xd2?'
tRp2260
sg35
g31
(g33
S'M\xfb\x1c\xcf[\x18\xd0?'
tRp2261
sg37
g31
(g33
S'n!Y\x11\x83\x9b\x8b?'
tRp2262
sg39
g31
(g33
S'\xb2N\xa0\x8b\xc0\x10\xc1?'
tRp2263
sg41
g31
(g33
S'"\x7f\xa4\xee\x86\xd1\xd2?'
tRp2264
ssS'AO_430_Lwide_logain'
p2265
(dp2266
g30
g31
(g33
S"\x1b\xc3\x0e\xd3\xf0'\xf0?"
tRp2267
sg35
g31
(g33
S'\x90\xef\xeb\xd9\x1a\xec\xd5?'
tRp2268
sg37
g31
(g33
S'7?#Q\x9ez\x8d?'
tRp2269
sg39
g31
(g33
S"\xcd`\xf0\xc3\xfe'\xd1?"
tRp2270
sg41
g31
(g33
S"\x85\xc6\xe0=\x85'\xf0?"
tRp2271
sssbag1
(g8
g3
NtRp2272
(dp2273
g11
F37.048999999999999
sg12
F76.908791281037409
sg13
F1.9011
sg14
S'J0614-3329'
p2274
sg16
F0.070440000000000003
sg17
F1.4893762435140363
sg18
F4.7627312068004244
sg19
F0.0031486695792891451
sg20
F568.70000000000005
sg21
F293.15173436052919
sg22
F48.452538507053568
sg23
F0.0026210000000000001
sg24
F-33.49836434511667
sg25
F-1.4317348069204676
sg26
(dp2275
S'GBT_Rcvr_800-Rcvr_1_2_logain'
p2276
(dp2277
g30
g31
(g33
S'\xe0\x8e}\x9b\xed<\xd6?'
tRp2278
sg35
g31
(g33
S'\x93&M\xb0\x94E\xc3?'
tRp2279
sg37
g31
(g33
S':\x83\xa9\x08\xe2\xf5\x81?'
tRp2280
sg39
g31
(g33
S'j\x14\xc8\xabXi\xc1?'
tRp2281
sg41
g31
(g33
S'JOwY\x1d;\xd6?'
tRp2282
ssS'AO_Lwide_Swide_logain'
p2283
(dp2284
g30
g31
(g33
S'=J\xbd`\x91:\xbc?'
tRp2285
sg35
g31
(g33
S"Mu\x01\xeb\x10'\xb3?"
tRp2286
sg37
g31
(g33
S':\x83\xa9\x08\xe2\xf5\x81?'
tRp2287
sg39
g31
(g33
S'\xc1t\x98\xf5m\x9a\xa3?'
tRp2288
sg41
g31
(g33
S'\xda\xae6Q\xad#\xbc?'
tRp2289
ssS'GBT_Rcvr_1_2_VLAS_logain'
p2290
(dp2291
g30
g31
(g33
S'\xb1x\x1dZ \x8b\xbe?'
tRp2292
sg35
g31
(g33
S"\x02\xe5'$u\x91\xb7?"
tRp2293
sg37
g31
(g33
S'\xe0\x11\xfb\n\xfb\xd1\x80?'
tRp2294
sg39
g31
(g33
S'>@\xd9\xb4\x96\xe9\xb0?'
tRp2295
sg41
g31
(g33
S'#hv \x94x\xbe?'
tRp2296
ssS'AO_430_Lwide_logain'
p2297
(dp2298
g30
g31
(g33
S'unQ;\x94\xa8\xd2?'
tRp2299
sg35
g31
(g33
S':\xfd\x0b\x1a\xad\xde\xbe?'
tRp2300
sg37
g31
(g33
S':\x83\xa9\x08\xe2\xf5\x81?'
tRp2301
sg39
g31
(g33
S'j\xe8b#H\xfc\xb9?'
tRp2302
sg41
g31
(g33
S'\xa9$\\\xdfj\xa6\xd2?'
tRp2303
sssbag1
(g8
g3
NtRp2304
(dp2305
g11
F22.728581999999999
sg12
F437.04081673845292
sg13
F1.4404999999999999
sg14
S'J2229+2643'
p2306
sg16
F0.024819999999999998
sg17
F0.86233405685539122
sg18
F5.3993628145196162
sg19
F0.0029778192957092605
sg20
F834
sg21
F581.44405594081479
sg22
F113.37517226629015
sg23
F0.0074390000000000003
sg24
F26.73085633049477
sg25
F-2.1380308476336407
sg26
(dp2307
S'GBT_Rcvr_800-Rcvr_1_2_logain'
p2308
(dp2309
g30
g31
(g33
S'q\x15GY\x19\xdd\xed?'
tRp2310
sg35
g31
(g33
S'\xe7\x03\xe8\xcb\xba_\xd5?'
tRp2311
sg37
g31
(g33
S'eqz\xc7Ah\x95?'
tRp2312
sg39
g31
(g33
S'\xc3\x9a\xc5FR:\xd3?'
tRp2313
sg41
g31
(g33
S"'\xcf\xd3;.\xdb\xed?"
tRp2314
ssS'AO_Lwide_Swide_logain'
p2315
(dp2316
g30
g31
(g33
S'\xf6\x98\xc6cz6\xcd?'
tRp2317
sg35
g31
(g33
S'\x1f\xb3VuW\xee\xc4?'
tRp2318
sg37
g31
(g33
S'eqz\xc7Ah\x95?'
tRp2319
sg39
g31
(g33
S'\xca,~\x06\xef\xef\xb2?'
tRp2320
sg41
g31
(g33
S'g\xd3\x85\x90\t\x17\xcd?'
tRp2321
ssS'GBT_Rcvr_1_2_VLAS_logain'
p2322
(dp2323
g30
g31
(g33
S'\x07\xed&MeN\xca?'
tRp2324
sg35
g31
(g33
S'\x82\x1c\x08\xa1\x08\x0f\xc6?'
tRp2325
sg37
g31
(g33
S'\xe5\x165\x06V\x0c\x94?'
tRp2326
sg39
g31
(g33
S'\x1f{\x96)\x9a\x82\xb7?'
tRp2327
sg41
g31
(g33
S'\xd9\x8dI\xaf\xc4/\xca?'
tRp2328
ssS'AO_430_Lwide_logain'
p2329
(dp2330
g30
g31
(g33
S'\x88\xbe\x90\xd8\xb75\xee?'
tRp2331
sg35
g31
(g33
S'\xbf\x97\x1e\x94\xfc\x9f\xd1?'
tRp2332
sg37
g31
(g33
S'eqz\xc7Ah\x95?'
tRp2333
sg39
g31
(g33
S'\x1b\x92\xec\x0c\xe8\xe5\xcd?'
tRp2334
sg41
g31
(g33
S',!"\\\xd23\xee?'
tRp2335
sssbag1
(g8
g3
NtRp2336
(dp2337
g11
F22.558742000000002
sg12
F181.03965514086292
sg13
F1.5476000000000001
sg14
S'J2214+3000'
p2338
sg16
F0.018630000000000001
sg17
F0.39000000000000001
sg18
F4.3558991465382766
sg19
F0.003119226580973074
sg20
F997.70000000000005
sg21
F562.6802863628526
sg22
F103.35942583649796
sg23
F0.0099089999999999994
sg24
F30.008634772848488
sg25
F0
sg26
(dp2339
S'GBT_Rcvr_800-Rcvr_1_2_logain'
p2340
(dp2341
g30
g31
(g33
S'\x9d^\xbf\x94\x80;\x0e@'
tRp2342
sg35
g31
(g33
S'\xf3\x9f/\xec\xeb\xc7\xff?'
tRp2343
sg37
g31
(g33
S'\xfb\xe9\xfe\xa5X\x8e\x8b?'
tRp2344
sg39
g31
(g33
S'\x06\xb9"\xd4\xcb\xb4\xff?'
tRp2345
sg41
g31
(g33
S'\x8a\x93\xd0\x05t;\x0e@'
tRp2346
ssS'AO_Lwide_Swide_logain'
p2347
(dp2348
g30
g31
(g33
S'_\xc7r\x97\x9c\xba\xfc?'
tRp2349
sg35
g31
(g33
S'(\xb8\xe2\x87\x89\xdf\xe5?'
tRp2350
sg37
g31
(g33
S'\xfb\xe9\xfe\xa5X\x8e\x8b?'
tRp2351
sg39
g31
(g33
S'1\xfb\xc6\x08lo\xe5?'
tRp2352
sg41
g31
(g33
S'\x97/\x94\xbag\xba\xfc?'
tRp2353
ssS'GBT_Rcvr_1_2_VLAS_logain'
p2354
(dp2355
g30
g31
(g33
S'\x95\x86+\x99X=\r@'
tRp2356
sg35
g31
(g33
S']p\xe0Ct\x1f\xfc?'
tRp2357
sg37
g31
(g33
S'#\xba\x96\n~\xce\x89?'
tRp2358
sg39
g31
(g33
S'\xc4\xb3ZD\xd8\t\xfc?'
tRp2359
sg41
g31
(g33
S'\xb9\xbd\xbf5M=\r@'
tRp2360
ssS'AO_430_Lwide_logain'
p2361
(dp2362
g30
g31
(g33
S'\xbc\x92\xa3H\t\xc7\xfc?'
tRp2363
sg35
g31
(g33
S'\x1e_\x91G\xa1\x8c\xf6?'
tRp2364
sg37
g31
(g33
S'\xfb\xe9\xfe\xa5X\x8e\x8b?'
tRp2365
sg39
g31
(g33
S'\xc4\x10\xfd\xda\xa1q\xf6?'
tRp2366
sg41
g31
(g33
S'\xbc\xe9\x97\x82\xd4\xc6\xfc?'
tRp2367
sssbag1
(g8
g3
NtRp2368
(dp2369
g11
F34.487811000000001
sg12
F83.979666864338554
sg13
F1.2753000000000001
sg14
S'J1614-2230'
p2370
sg16
F0.1739
sg17
F1.883198687866156
sg18
F4.0809137704316711
sg19
F0.0031508076554611769
sg20
F296.39999999999998
sg21
F395.48867869945769
sg22
F64.953275908927381
sg23
F0.0010610000000000001
sg24
F-22.5096009955802
sg25
F-1.5979374297292224
sg26
(dp2371
S'GBT_Rcvr_800-Rcvr_1_2_logain'
p2372
(dp2373
g30
g31
(g33
S'Do\\\x0b\xe1\xef\xdd?'
tRp2374
sg35
g31
(g33
S'\xd9\x8f\x97\xab\xb5\xe5\xc7?'
tRp2375
sg37
g31
(g33
S'\x04\xe5\x8c\xe7\x98\xc4\x82?'
tRp2376
sg39
g31
(g33
S'\xe2\x93\x1b\xe0o4\xc5?'
tRp2377
sg41
g31
(g33
S'8\x1b\xcf\x7fh\xee\xdd?'
tRp2378
ssS'AO_Lwide_Swide_logain'
p2379
(dp2380
g30
g31
(g33
S'<\xc7\x06@\xb4K\xc1?'
tRp2381
sg35
g31
(g33
S'\xac?d\xc0\x9e\xc1\xb8?'
tRp2382
sg37
g31
(g33
S'\x04\xe5\x8c\xe7\x98\xc4\x82?'
tRp2383
sg39
g31
(g33
S'\x00\x01E\x93H\xa1\xa6?'
tRp2384
sg41
g31
(g33
S'2\x06\xa6u\x82A\xc1?'
tRp2385
ssS'GBT_Rcvr_1_2_VLAS_logain'
p2386
(dp2387
g30
g31
(g33
S'\xd7\xb4X\xeb,~\xc1?'
tRp2388
sg35
g31
(g33
S'\x89\xbe<\x9el^\xbc?'
tRp2389
sg37
g31
(g33
S'N\xd7\x17K\x92\x93\x81?'
tRp2390
sg39
g31
(g33
S'\x16\x9a\xe9\xa3\xef\xe7\xb1?'
tRp2391
sg41
g31
(g33
S'\x18\xd1\xc0&Vu\xc1?'
tRp2392
ssS'AO_430_Lwide_logain'
p2393
(dp2394
g30
g31
(g33
S'\xaf!\xa4\x1e\xa6\xd5\xdd?'
tRp2395
sg35
g31
(g33
S'6\xe6\x93\x9d\xc4k\xc3?'
tRp2396
sg37
g31
(g33
S'\x04\xe5\x8c\xe7\x98\xc4\x82?'
tRp2397
sg39
g31
(g33
S'\xaa\x81\xbd\x12\xf5\xcc\xbf?'
tRp2398
sg41
g31
(g33
S'&\xb2\xf8G,\xd4\xdd?'
tRp2399
sssbag1
(g8
g3
NtRp2400
(dp2401
g11
F10.245999999999999
sg12
F704.11489348777923
sg13
F0.44990000000000002
sg14
S'J1022+1001'
p2402
sg16
F0.0082439999999999996
sg17
F6.1240351250578566
sg18
F6.2040224212044164
sg19
F0.016452929683202652
sg20
F808.70000000000005
sg21
F1390.0550147832807
sg22
F126.32711484683772
sg23
F0.02239
sg24
F10.032450540644485
sg25
F-1.0786983698332917
sg26
(dp2403
S'GBT_Rcvr_800-Rcvr_1_2_logain'
p2404
(dp2405
g30
g31
(g33
S'\x1d\xa0\x91\xbc1\x00\xe0?'
tRp2406
sg35
g31
(g33
S'\x07\x84\xa0\x0f\xac\x0b\xda?'
tRp2407
sg37
g31
(g33
S'\xac\xaa\xf5\xaa\x08,\x9b?'
tRp2408
sg39
g31
(g33
S'\xb5Np\xdf\xaf\xfc\xc1?'
tRp2409
sg41
g31
(g33
S'\x03\xd4_B\xd8\xf4\xdf?'
tRp2410
ssS'AO_Lwide_Swide_logain'
p2411
(dp2412
g30
g31
(g33
S'\xa6,\xf7\xc4\x8dN\xd9?'
tRp2413
sg35
g31
(g33
S'p\x14\xfa*\xd5\x96\xd8?'
tRp2414
sg37
g31
(g33
S'\xac\xaa\xf5\xaa\x08,\x9b?'
tRp2415
sg39
g31
(g33
S'\xe9o\x13\xdb\xfba\xa5?'
tRp2416
sg41
g31
(g33
S'`\xba\x054\xf3?\xd9?'
tRp2417
ssS'GBT_Rcvr_1_2_VLAS_logain'
p2418
(dp2419
g30
g31
(g33
S'\xad1@\xcc\xf3\xe1\xd9?'
tRp2420
sg35
g31
(g33
S'Q`\xa1o\xfb\x02\xd9?'
tRp2421
sg37
g31
(g33
S'\\\xee\x99\xe1kr\x99?'
tRp2422
sg39
g31
(g33
S'\\\xaaLKG4\xb5?'
tRp2423
sg41
g31
(g33
S'LJ\xa2bn\xd5\xd9?'
tRp2424
ssS'AO_430_Lwide_logain'
p2425
(dp2426
g30
g31
(g33
S'i9\xd26\xe9\x0b\xdc?'
tRp2427
sg35
g31
(g33
S'(\x9d\xda\xd8iQ\xd9?'
tRp2428
sg37
g31
(g33
S'\xac\xaa\xf5\xaa\x08,\x9b?'
tRp2429
sg39
g31
(g33
S'/\xaa\xe4l\xb6b\xba?'
tRp2430
sg41
g31
(g33
S'\xf6\xe1\x18\x8d\xbc\xfe\xdb?'
tRp2431
sssbag1
(g8
g3
NtRp2432
(dp2433
g11
F33.769562999999998
sg12
F120.47716700357869
sg13
F1.4285000000000001
sg14
S'J1738+0333'
p2434
sg16
F0.12479999999999999
sg17
F0.69650717484100277
sg18
F5.0909841249033514
sg19
F0.0058500957725237009
sg20
F370.30000000000001
sg21
F642.81646626129168
sg22
F31.443309197405505
sg23
F0.0014789999999999998
sg24
F3.5535266664263725
sg25
F-0.39414585467864471
sg26
(dp2435
S'GBT_Rcvr_800-Rcvr_1_2_logain'
p2436
(dp2437
g30
g31
(g33
S"\x85SZ\x98'\xde\x00@"
tRp2438
sg35
g31
(g33
S'\x16\x06\xfe\xbf\xf5\x1a\xf0?'
tRp2439
sg37
g31
(g33
S'h\x042\xda\xb1z\x86?'
tRp2440
sg39
g31
(g33
S'v\x97\xaaBU\x14\xf0?'
tRp2441
sg41
g31
(g33
S'<b\xc2\x9d\x18\xde\x00@'
tRp2442
ssS'AO_Lwide_Swide_logain'
p2443
(dp2444
g30
g31
(g33
S'9\x8aU\xa3\xa6^\xe9?'
tRp2445
sg35
g31
(g33
S'\xff\xab\xef\xe5W\x86\xd4?'
tRp2446
sg37
g31
(g33
S'h\x042\xda\xb1z\x86?'
tRp2447
sg39
g31
(g33
S'\xfc\xcaG\x0e\x1b3\xd4?'
tRp2448
sg41
g31
(g33
S'\x8e\xc2\x06I\x07^\xe9?'
tRp2449
ssS'GBT_Rcvr_1_2_VLAS_logain'
p2450
(dp2451
g30
g31
(g33
S'^\xd8\x1b\xfc\xd9\xfc\xf5?'
tRp2452
sg35
g31
(g33
S'\x95u}\x89\xe9j\xe8?'
tRp2453
sg37
g31
(g33
S'\xf3\x1c\xa6\xcdY\r\x85?'
tRp2454
sg39
g31
(g33
S',\xaf\x18o\x8dY\xe8?'
tRp2455
sg41
g31
(g33
S'\x1f!\xe2\xab\xb1\xfc\xf5?'
tRp2456
ssS'AO_430_Lwide_logain'
p2457
(dp2458
g30
g31
(g33
S'\xb8\x11P\x16p\xdf\xf3?'
tRp2459
sg35
g31
(g33
S'\xe8\xa3\xbb\x8d\xb7\xd3\xe6?'
tRp2460
sg37
g31
(g33
S'h\x042\xda\xb1z\x86?'
tRp2461
sg39
g31
(g33
S'"\x95\x15.i\xbf\xe6?'
tRp2462
sg41
g31
(g33
S'J\x9d\x1f;=\xdf\xf3?'
tRp2463
sssbag1
(g8
g3
NtRp2464
(dp2465
g11
F52.324102000000003
sg12
F70.171634057561221
sg13
F1.6341000000000001
sg14
S'J1600-3053'
p2466
sg16
F0.54949999999999999
sg17
F2.931021757268649
sg18
F6.1949933710325666
sg19
F0.0035979284550047828
sg20
F188.80000000000001
sg21
F424.57996519188094
sg22
F26.239171930102138
sg23
F0.00033600000000000004
sg24
F-30.898579821453811
sg25
F-0.54492771050814437
sg26
(dp2467
S'GBT_Rcvr_800-Rcvr_1_2_logain'
p2468
(dp2469
g30
g31
(g33
S'd\xa1\x04\x17\xd4\xf0\xd3?'
tRp2470
sg35
g31
(g33
S'*\xa3\x1dRI\xe0\xbf?'
tRp2471
sg37
g31
(g33
S"Tl\x8a\xeb\xe1'\x81?"
tRp2472
sg39
g31
(g33
S'1aL\x89Zf\xbe?'
tRp2473
sg41
g31
(g33
S'd\xdb\xec\xb0\xfb\xee\xd3?'
tRp2474
ssS'AO_Lwide_Swide_logain'
p2475
(dp2476
g30
g31
(g33
S'\xb5V\xdeX\r\xaf\xbb?'
tRp2477
sg35
g31
(g33
S'\xad\xae\xa2\xcbQ\xec\xaa?'
tRp2478
sg37
g31
(g33
S"Tl\x8a\xeb\xe1'\x81?"
tRp2479
sg39
g31
(g33
S'\xa8Q\xc9&\xfe\xf2\xa2?'
tRp2480
sg41
g31
(g33
S'q\xfb\t\xd0\xc1\x99\xbb?'
tRp2481
ssS'GBT_Rcvr_1_2_VLAS_logain'
p2482
(dp2483
g30
g31
(g33
S'\x9d)\xbf\x8e\x15\xff\xc3?'
tRp2484
sg35
g31
(g33
S'\xd0\x812\xc80\x04\xb8?'
tRp2485
sg37
g31
(g33
S'b\xf3a\xf2\x0e\x11\x80?'
tRp2486
sg39
g31
(g33
S'c\xa1\x17\x08\xea\x0b\xb6?'
tRp2487
sg41
g31
(g33
S'\x10\xcb\xd5$\xa0\xf8\xc3?'
tRp2488
ssS'AO_430_Lwide_logain'
p2489
(dp2490
g30
g31
(g33
S'\x16n\x02U\xad\xed\xed?'
tRp2491
sg35
g31
(g33
S'\xce\x9b2\x19\xa5\xc0\xb7?'
tRp2492
sg37
g31
(g33
S"Tl\x8a\xeb\xe1'\x81?"
tRp2493
sg39
g31
(g33
S'\n\\i\x05\xfc\xae\xb5?'
tRp2494
sg41
g31
(g33
S'\xbb\xd4:\xa8^\xed\xed?'
tRp2495
sssbasg14
S'NG15yr'
p2496
sb.