ccopy_reg
_reconstructor
p1
(cpta
PTA
p2
c__builtin__
object
p3
NtRp4
(dp5
S'psrlist'
p6
(lp7
g1
(cpulsar
Pulsar
p8
g3
NtRp9
(dp10
S'sig_j_single'
p11
F94.93352947133782
sS'w50'
p12
F150.68814201799654
sS'dist'
p13
F0.69640000000000002
sS'name'
p14
S'J0605+3757'
p15
sS'taud'
p16
F0.060340000000000012
sS's_1000'
p17
F0.83096476660590535
sS'period'
p18
F0.0027279541573215337
sS'dtd'
p19
F371.89999999999998
sS'weff'
p20
F452.3658965742157
sS'dm'
p21
F20.946279000000001
sS'sigmas'
p22
(dp23
S'CHIME'
p24
(dp25
S'sigma_tot'
p26
cnumpy.core.multiarray
scalar
p27
(cnumpy
dtype
p28
(S'f8'
I0
I1
tRp29
(I3
S'<'
NNNI-1
I-1
I0
tbS'$\x00X\xaa\x05\xd2\xfa?'
tRp30
sS'sigma_white'
p31
g27
(g29
S']r\xce\xd8\xb8\x16\xe0?'
tRp32
sS'sigma_tel'
p33
g27
(g29
S'\xaaa\xe6k#\x95\x8a?'
tRp34
sS'sigma_rn'
p35
g27
(g29
S'\x14\x97\x9d\x9d\xa8\n\xe0?'
tRp36
sS'sigma_dm'
p37
g27
(g29
S',v\x8d\xf8\xd0\xd1\xfa?'
tRp38
sssS'dnud'
p39
F0.0030599999999999998
sS'dec'
p40
F37.959986699583347
sS'spindex'
p41
F-1.7575325430182809
sS'uscale'
p42
F5.1338812830100915
sbag1
(g8
g3
NtRp43
(dp44
g11
F165.90879700647585
sg12
F263.34729683567599
sg13
F0.83020000000000005
sg14
S'J1312+0051'
p45
sg16
F0.023040000000000001
sg17
F0.66027995133607009
sg18
F0.0042280189916582504
sg19
F657.10000000000002
sg20
F696.29666585477537
sg21
F15.348572003298266
sg22
(dp46
S'CHIME'
p47
(dp48
g26
g27
(g29
S'\xd3\xf7x\x97\x99\xa6\x19@'
tRp49
sg31
g27
(g29
S"hB'S\xbeG\x01@"
tRp50
sg33
g27
(g29
S'1z&\xe5 \x92\x91?'
tRp51
sg35
g27
(g29
S'I\xe6>_\xddC\x01@'
tRp52
sg37
g27
(g29
S'?\xb2\xdb\x92\x93\xa6\x19@'
tRp53
sssg39
F0.0080129999999999993
sg40
F0.85003241944444441
sg41
F-1.3445662175368971
sg42
F4.6372519916128656
sbag1
(g8
g3
NtRp54
(dp55
g11
F106.17691897165001
sg12
F168.53479201849208
sg13
F3.3151999999999999
sg14
S'J2022+2534'
p56
sg16
F0.1414
sg17
F1.6166136126113233
sg18
F0.0026459357676189852
sg19
F530
sg20
F386.22079965318505
sg21
F53.662658999999998
sg22
(dp57
S'CHIME'
p58
(dp59
g26
g27
(g29
S'\x1b\xa2\x9an\x19\xc0\xfc?'
tRp60
sg31
g27
(g29
S'!\xf0\xedg\x04\x8b\xd4?'
tRp61
sg33
g27
(g29
S'\xff#\r\x8f\xd8\x1c\x8c?'
tRp62
sg35
g27
(g29
S'\x1b{\xc2N\x81L\xd4?'
tRp63
sg37
g27
(g29
S'\x8b\xb0\xf8s\xe2\xbf\xfc?'
tRp64
sssg39
F0.0013050000000000002
sg40
F25.578472309166671
sg41
F-1.9105663360356759
sg42
F4.3652709271807684
sbag1
(g8
g3
NtRp65
(dp66
g11
F62.782813470532119
sg12
F124.52392745723749
sg13
F2.0507
sg14
S'J1853+1303'
p67
sg16
F0.037089999999999998
sg17
F0.87828344332723218
sg18
F0.0040917973833788203
sg19
F814
sg20
F345.86988790004943
sg21
F30.570177000000001
sg22
(dp68
S'CHIME'
p69
(dp70
g26
g27
(g29
S'\x85\xb7\x9f\xb9&Y\x01@'
tRp71
sg31
g27
(g29
S'MiZ\xdb`!\xe7?'
tRp72
sg33
g27
(g29
S'{\x9d\x03\xb92*\x88?'
tRp73
sg35
g27
(g29
S'\xca4\xce0\x19\x1a\xe7?'
tRp74
sg37
g27
(g29
S'\t\xbb!\xe5\x15Y\x01@'
tRp75
sssg39
F0.0049779999999999998
sg40
F13.06255081725492
sg41
F-1.9874501203397166
sg42
F4.6817123958160085
sbag1
(g8
g3
NtRp76
(dp77
g11
F551.90297335277512
sg12
F876.03646563932557
sg13
F1.7890999999999999
sg14
S'J0709+0458'
p78
sg16
F0.17330000000000001
sg17
F0.41977054504786288
sg18
F0.0344289781773107
sg19
F351.69999999999999
sg20
F2834.0084473060901
sg21
F44.262385999999999
sg22
(dp79
S'CHIME'
p80
(dp81
g26
g27
(g29
S'3m\x84\xc8\xd5K>@'
tRp82
sg31
g27
(g29
S'!\xc0\xda\xc3\xd0\x97%@'
tRp83
sg33
g27
(g29
S'\x83s\xde\xed\x06\x06\xa0?'
tRp84
sg35
g27
(g29
S'G\x8b\xd2s\xd8\x85%@'
tRp85
sg37
g27
(g29
S'h\xffR\xb9\xd4K>@'
tRp86
sssg39
F0.001065
sg40
F4.9809625675555536
sg41
F-0.80656653162941916
sg42
F7.8520278957051426
sbag1
(g8
g3
NtRp87
(dp88
g11
F60.163066482482002
sg12
F247.20921649341858
sg13
F1.0238
sg14
S'J2010-1323'
p89
sg16
F0.039580000000000004
sg17
F1.2221193682065479
sg18
F0.0052232710167467965
sg19
F556.70000000000005
sg20
F528.18768602427588
sg21
F22.162662000000001
sg22
(dp90
S'CHIME'
p91
(dp92
g26
g27
(g29
S'\x86\x1da\x93B{\x03@'
tRp93
sg31
g27
(g29
S'\xfa\x8c\x15\xa4h\xa1\xe9?'
tRp94
sg33
g27
(g29
S'\xc2\xb4,/ \x06\x91?'
tRp95
sg35
g27
(g29
S'\x10\x01Kq\x1b\x9a\xe9?'
tRp96
sg37
g27
(g29
S'\xc4S\x94\xd2${\x03@'
tRp97
sssg39
F0.0046639999999999997
sg40
F-13.397984012969143
sg41
F-1.5314704376495545
sg42
F6.9540731185862068
sbag1
(g8
g3
NtRp98
(dp99
g11
F33.874356638965075
sg12
F141.24097798963683
sg13
F0.3856
sg14
S'J1024-0719'
p100
sg16
F0.00101
sg17
F2.0047881960551881
sg18
F0.005162204562260601
sg19
F2139
sg20
F575.88449119777613
sg21
F6.4862669999999998
sg22
(dp101
S'CHIME'
p102
(dp103
g26
g27
(g29
S'\xca9\xf5vT\xb9\x03@'
tRp104
sg31
g27
(g29
S'\x7f\x96\xdf\xc1\x1b<\xeb?'
tRp105
sg33
g27
(g29
S'>>l\xef]\xbc\x89?'
tRp106
sg35
g27
(g29
S'w\xd2\x1e\xfc\x1a:\xeb?'
tRp107
sg37
g27
(g29
S'?\xb9\xad\xacC\xb9\x03@'
tRp108
sssg39
F0.1827
sg40
F-7.3223148816927646
sg41
F-1.0249925793307926
sg42
F4.4190700554635276
sbag1
(g8
g3
NtRp109
(dp110
g11
F117.15073387063082
sg12
F185.95354582639808
sg13
F1.1207
sg14
S'J1630+3550'
p111
sg16
F0.029919999999999999
sg17
F0.33255619311608409
sg18
F0.0032291562865483076
sg19
F669.89999999999998
sg20
F588.0339916069139
sg21
F17.452258
sg22
(dp112
S'CHIME'
p113
(dp114
g26
g27
(g29
S'besH\xa1\xa0\x10@'
tRp115
sg31
g27
(g29
S'\xb1\x80w\xba\xb7\\\xf3?'
tRp116
sg33
g27
(g29
S'\xae\xa6\xe5S\x9d\x87\x8d?'
tRp117
sg35
g27
(g29
S'\x1d\xdc\xa0\xc8kX\xf3?'
tRp118
sg37
g27
(g29
S'\x833?\xba\x9a\xa0\x10@'
tRp119
sssg39
F0.0061700000000000001
sg40
F35.845116772805561
sg41
F-2.3662384794904607
sg42
F4.242963364606144
sbag1
(g8
g3
NtRp120
(dp121
g11
F184.150567748008
sg12
F292.30248848890147
sg13
F1.2099
sg14
S'J1719-1438'
p122
sg16
F0.20910000000000001
sg17
F1.7335598291858898
sg18
F0.0057901516802464003
sg19
F263.30000000000001
sg20
F811.8275579144597
sg21
F36.774428999999998
sg22
(dp123
S'CHIME'
p124
(dp125
g26
g27
(g29
S'+\x9f>l8:\x11@'
tRp126
sg31
g27
(g29
S'\xfb\xde\x9d\xed\x864\xf4?'
tRp127
sg33
g27
(g29
S'Y\x947\x8b\xf7\x82\x92?'
tRp128
sg35
g27
(g29
S'\xf0\xfc\xd4ON\x1e\xf4?'
tRp129
sg37
g27
(g29
S'~\xb9\x1fz.:\x11@'
tRp130
sssg39
F0.00088309999999999984
sg40
F-14.633595000000001
sg41
F-1.8508144926164265
sg42
F5.6165095200234338
sbag1
(g8
g3
NtRp131
(dp132
g11
F99.976430685414158
sg12
F158.69274711970502
sg13
F1.0530999999999999
sg14
S'J2150-0326'
p133
sg16
F0.033360000000000001
sg17
F0.90967292537925337
sg18
F0.003510702855893541
sg19
F615.10000000000002
sg20
F439.15647628544963
sg21
F20.670000000000002
sg22
(dp134
S'CHIME'
p135
(dp136
g26
g27
(g29
S'\x95\xd6\xf5\xe1\xfe\xa2\xfe?'
tRp137
sg31
g27
(g29
S'+\xaa\xc7\x1f\xf2\xc2\xe2?'
tRp138
sg33
g27
(g29
S'N\\q\x9e\x8bG\x8b?'
tRp139
sg35
g27
(g29
S'\xfe\xc1\x92\x030\xb1\xe2?'
tRp140
sg37
g27
(g29
S'\xdd[BM\xce\xa2\xfe?'
tRp141
sssg39
F0.005535
sg40
F-3.4424381650833338
sg41
F-1.900005227060352
sg42
F5.7607359582795823
sbag1
(g8
g3
NtRp142
(dp143
g11
F30.685359730650678
sg12
F133.16946187290279
sg13
F0.68000000000000005
sg14
S'J0740+6620'
p144
sg16
F0.018800000000000001
sg17
F1.6192462148591555
sg18
F0.002885736410850217
sg19
F658.39999999999998
sg20
F272.23708034696523
sg21
F14.963860999999998
sg22
(dp145
S'CHIME'
p146
(dp147
g26
g27
(g29
S'\x0c\xddTeV\xc5\xe3?'
tRp148
sg31
g27
(g29
S'J\xdd{C\xce:\xc9?'
tRp149
sg33
g27
(g29
S'\x0ea\xf05X\xfd\x88?'
tRp150
sg35
g27
(g29
S'\x1dT\xf7pX6\xc9?'
tRp151
sg37
g27
(g29
S'\x8a~\xf4\xaeY\xc4\xe3?'
tRp152
sssg39
F0.0098209999999999999
sg40
F66.344244659949993
sg41
F-1.3735401138410881
sg42
F2.4963442872290056
sbag1
(g8
g3
NtRp153
(dp154
g11
F93.945283686744858
sg12
F351.61038784046667
sg13
F1.8754
sg14
S'J0931-1902'
p155
sg16
F0.14510000000000001
sg17
F1.4278762817163129
sg18
F0.0046380293913442228
sg19
F393.5
sg20
F413.34542312574541
sg21
F41.488202000000001
sg22
(dp156
S'CHIME'
p157
(dp158
g26
g27
(g29
S'\xc1\xf8\xa6\x1d\x02e\x10@'
tRp159
sg31
g27
(g29
S'\xaa\x9f\x1f\xc7\x85\xae\xf3?'
tRp160
sg33
g27
(g29
S'\x89\x1eo\x91\x8bM\x94?'
tRp161
sg35
g27
(g29
S'\n\x18\x92>G\xa9\xf3?'
tRp162
sg37
g27
(g29
S'\xcc\xf7T\x8b\xf5d\x10@'
tRp163
sssg39
F0.0012719999999999999
sg40
F-19.049518775376484
sg41
F-1.5767767801081007
sg42
F3.2273186496104644
sbag1
(g8
g3
NtRp164
(dp165
g11
F251.11463412086059
sg12
F364.48275530218172
sg13
F1.7906
sg14
S'J1944+0907'
p166
sg16
F0.01745
sg17
F3.7187584529019397
sg18
F0.0051852019093387046
sg19
F1109
sg20
F949.93244783429839
sg21
F24.353580999999998
sg22
(dp167
S'CHIME'
p168
(dp169
g26
g27
(g29
S'\xf3\x01\xfeuZ\x88\x06@'
tRp170
sg31
g27
(g29
S'w\xd7al\x10\xfd\xed?'
tRp171
sg33
g27
(g29
S'f\x11\xf3\x95\xd4\xab\x94?'
tRp172
sg35
g27
(g29
S'\xead\xa7\x0f\xeb\x9a\xed?'
tRp173
sg37
g27
(g29
S'\x82\x87\x85\x884\x88\x06@'
tRp174
sssg39
F0.010579999999999999
sg40
F9.1232080735658823
sg41
F-2.0590506443873782
sg42
F2.1155604834353481
sbag1
(g8
g3
NtRp175
(dp176
g11
F42.030660157471964
sg12
F136.84880675664036
sg13
F0.41460000000000002
sg14
S'J1744-1134'
p177
sg16
F0.00011730000000000001
sg17
F3.5734525385909715
sg18
F0.0040745458788739109
sg19
F6508
sg20
F511.54159458098633
sg21
F3.1383580000000002
sg22
(dp178
S'CHIME'
p179
(dp180
g26
g27
(g29
S'k\xb0\x1cyRo\xf2?'
tRp181
sg31
g27
(g29
S'\x19\xc8*\x07\xdc\x8f\xd9?'
tRp182
sg33
g27
(g29
S'.\xe9\xeba\x1eU\x89?'
tRp183
sg35
g27
(g29
S'4\xa4\x16\xa2\x97\x85\xd9?'
tRp184
sg37
g27
(g29
S'\xa9D`\xd9\x0co\xf2?'
tRp185
sssg39
F1.5740000000000001
sg40
F-11.581730006162687
sg41
F-1.8001570043493795
sg42
F5.9754857579619287
sbag1
(g8
g3
NtRp186
(dp187
g11
F45.517130679403934
sg12
F72.249413776831631
sg13
F1.7398
sg14
S'J0406+3039'
p188
sg16
F0.26519999999999999
sg17
F0.92802698906728442
sg18
F0.0026086540397240602
sg19
F280.39999999999998
sg20
F359.34321526122039
sg21
F49.371856000000001
sg22
(dp189
S'CHIME'
p190
(dp191
g26
g27
(g29
S'\xb3\xd0k\xa2\x00\x90\x08@'
tRp192
sg31
g27
(g29
S's\x0fG\x01\x10\xe2\xdb?'
tRp193
sg33
g27
(g29
S'Fd\xe9\xd6\x19h\x82?'
tRp194
sg35
g27
(g29
S' \x17\x00v\xa6\xd1\xdb?'
tRp195
sg37
g27
(g29
S'\x06V\xd7\xbc\xf9\x8f\x08@'
tRp196
sssg39
F0.00069620000000000012
sg40
F30.660334599812369
sg41
F-1.4486320163469146
sg42
F5.2845253626863204
sbag1
(g8
g3
NtRp197
(dp198
g11
F41.52461802532298
sg12
F86.282486553236623
sg13
F0.87429999999999997
sg14
S'J1741+1351'
p199
sg16
F0.0038649999999999999
sg17
F0.56416463469590017
sg18
F0.0037471545002598686
sg19
F1646
sg20
F390.46895297479415
sg21
F24.198833999999998
sg22
(dp200
S'CHIME'
p201
(dp202
g26
g27
(g29
S'F\x88Z{\x95\xc8\x03@'
tRp203
sg31
g27
(g29
S'\x92\x82\x91\x14\xeeJ\xe9?'
tRp204
sg33
g27
(g29
S'\\5\x86\xd4l\x1d\x84?'
tRp205
sg35
g27
(g29
S'\xf4\xc6\x9a\xa5\x9cH\xe9?'
tRp206
sg37
g27
(g29
S'e\xe1\x7fA\x8b\xc8\x03@'
tRp207
sssg39
F0.04777
sg40
F13.862994954322845
sg41
F-2.0820633472072601
sg42
F5.1285180540494277
sbag1
(g8
g3
NtRp208
(dp209
g11
F131.92050064270754
sg12
F209.39762006778969
sg13
F1.153
sg14
S'J0751+1807'
p210
sg16
F0.08864000000000001
sg17
F1.5510571142552965
sg18
F0.003478770839279425
sg19
F394.80000000000001
sg20
F568.45687712934171
sg21
F30.245999999999999
sg22
(dp211
S'CHIME'
p212
(dp213
g26
g27
(g29
S'\x1a-\x05`B:\x01@'
tRp214
sg31
g27
(g29
S'\xad\x07\xb5\xc7\xe5\x04\xe6?'
tRp215
sg33
g27
(g29
S'\xcf\x06[\xff\x02V\x8f?'
tRp216
sg35
g27
(g29
S'\x8e\xe1^74\xeb\xe5?'
tRp217
sg37
g27
(g29
S'n\xc2"\xe0%:\x01@'
tRp218
sssg39
F0.0020829999999999998
sg40
F18.127357333333329
sg41
F-0.99436641697706285
sg42
F4.7266097703093584
sbag1
(g8
g3
NtRp219
(dp220
g11
F591.86846097444925
sg12
F939.4737475784907
sg13
F1.6552
sg14
S'J0732+2314'
p221
sg16
F0.2084
sg17
F1.3061538009893252
sg18
F0.004090137082364601
sg19
F308.5
sg20
F653.77617812612607
sg21
F44.672663
sg22
(dp222
S'CHIME'
p223
(dp224
g26
g27
(g29
S'\xb4k\x91\xd0\x8a\x89\r@'
tRp225
sg31
g27
(g29
S'\xfb\x07\xf1\x80Vv\xf0?'
tRp226
sg33
g27
(g29
S'ESu\x18\xf4\x97\xa0?'
tRp227
sg35
g27
(g29
S')\xab\xc4\xca}x\xef?'
tRp228
sg37
g27
(g29
S'\x15\xd9\xbd<@\x89\r@'
tRp229
sssg39
F0.00088580000000000017
sg40
F23.24836882213889
sg41
F-1.4200512498657012
sg42
F3.2559684790134216
sbag1
(g8
g3
NtRp230
(dp231
g11
F320.97089319935259
sg12
F509.47760825294068
sg13
F0.27429999999999999
sg14
S'J2124-3358'
p232
sg16
F0.00077039999999999997
sg17
F6.2944344264936793
sg18
F0.0049311148591480889
sg19
F2065
sg20
F877.85701174477219
sg21
F4.6151999999999997
sg22
(dp233
S'CHIME'
p234
(dp235
g26
g27
(g29
S'7^\x90\xf4\x11\xed"@'
tRp236
sg31
g27
(g29
S'I,\x08\x06v\x05\n@'
tRp237
sg33
g27
(g29
S'\xc2\x19J\x91zp\x98?'
tRp238
sg35
g27
(g29
S'2\xaf}\x9a \xfc\t@'
tRp239
sg37
g27
(g29
S';\x9a\xae\x02\x0e\xed"@'
tRp240
sssg39
F0.23960000000000001
sg40
F-33.97896027777778
sg41
F-1.1742500757441443
sg42
F2.3555634992184493
sbag1
(g8
g3
NtRp241
(dp242
g11
F36.21336407485753
sg12
F150.66888055832726
sg13
F1.2342
sg14
S'J1918-0642'
p243
sg16
F0.062320000000000014
sg17
F2.8534042893934184
sg18
F0.0076458727696416956
sg19
F487.10000000000002
sg20
F878.97803168919279
sg21
F26.591302000000002
sg22
(dp244
S'CHIME'
p245
(dp246
g26
g27
(g29
S'\xcc\xe2\x86\xae\x06\x97\x01@'
tRp247
sg31
g27
(g29
S'\x85.\xf1a\xb4\xa4\xe6?'
tRp248
sg33
g27
(g29
S'\x15\xfe\x90\x13\xb4\x94\x8a?'
tRp249
sg35
g27
(g29
S'\x9dO\xcfel\x9f\xe6?'
tRp250
sg37
g27
(g29
S'\x9fJ\r\x99\xf2\x96\x01@'
tRp251
sssg39
F0.0029619999999999998
sg40
F-6.7091672921950076
sg41
F-1.9510396690393659
sg42
F5.1826695269782164
sbag1
(g8
g3
NtRp252
(dp253
g11
F265.45310678845442
sg12
F303.65586435063148
sg13
F1.1514
sg14
S'J1453+1902'
p254
sg16
F0.018149999999999999
sg17
F0.5843970831668589
sg18
F0.0057923027385756937
sg19
F871.79999999999995
sg20
F906.99436077801602
sg21
F14.056203
sg22
(dp255
S'CHIME'
p256
(dp257
g26
g27
(g29
S'\xfc\xc0\xc3h@\xfe\x1c@'
tRp258
sg31
g27
(g29
S'1\xdb\xd7\x93\x8f\xd5\x03@'
tRp259
sg33
g27
(g29
S'\xf9\xb2\xed\xb0\x1f\xde\x92?'
tRp260
sg35
g27
(g29
S'\xc4\xebr\x07U\xca\x03@'
tRp261
sg37
g27
(g29
S'\x8eQ!E:\xfe\x1c@'
tRp262
sssg39
F0.01017
sg40
F19.038654174707371
sg41
F-1.4398711231579056
sg42
F4.8797176856294646
sbag1
(g8
g3
NtRp263
(dp264
g11
F115.83032631790761
sg12
F517.90106052152532
sg13
F1.1758999999999999
sg14
S'B1855+09'
p265
sg16
F0.0077559999999999999
sg17
F5.8869941671296919
sg18
F0.0053621004661261809
sg19
F1348
sg20
F750.8827407394009
sg21
F13.300066000000001
sg22
(dp266
S'CHIME'
p267
(dp268
g26
g27
(g29
S'\x9c\x8d\x8a\x19r1\xf5?'
tRp269
sg31
g27
(g29
S'SX\xe8\x9e\x95\xf8\xde?'
tRp270
sg33
g27
(g29
S'\x04\x1c\x0e\xce\xfc\xa3\x98?'
tRp271
sg35
g27
(g29
S' \xd8\x1a0\xbc\x9e\xde?'
tRp272
sg37
g27
(g29
S'w\xf4\xfa\xe3\x8c0\xf5?'
tRp273
sssg39
F0.023800000000000002
sg40
F9.7217692523443517
sg41
F-1.3009824433178201
sg42
F4.2219782759781097
sbag1
(g8
g3
NtRp274
(dp275
g11
F74.70178212888419
sg12
F118.57425734743521
sg13
F0.91439999999999999
sg14
S'J2039-3616'
p276
sg16
F0.055910000000000001
sg17
F1.1346082948166809
sg18
F0.0032750415510097572
sg19
F442.69999999999999
sg20
F504.44759385224546
sg21
F23.962515
sg22
(dp277
S'CHIME'
p278
(dp279
g26
I-2
sg31
I-2
sg33
I-2
sg35
I-2
sg37
I-2
sssg39
F0.0033019999999999998
sg40
F-36.271443896138891
sg41
F-1.1909580605947685
sg42
F4.8867105728041187
sbag1
(g8
g3
NtRp280
(dp281
g11
F15.65237146151186
sg12
F21.127887311968962
sg13
F1.7583
sg14
S'J2043+1711'
p282
sg16
F0.012159999999999999
sg17
F0.41797072494740289
sg18
F0.002379878923889773
sg19
F1316
sg20
F179.43998316054066
sg21
F20.711986
sg22
(dp283
S'CHIME'
p284
(dp285
g26
g27
(g29
S'\x98\x840\xbe\xf7^\x01@'
tRp286
sg31
g27
(g29
S"\xa5\x92*\x9c'\x81\xe6?"
tRp287
sg33
g27
(g29
S'\x19\xc1\x034N\xe8s?'
tRp288
sg35
g27
(g29
S',$\x97\xb3g\x80\xe6?'
tRp289
sg37
g27
(g29
S'\x80\x9e!\xe4\xf4^\x01@'
tRp290
sssg39
F0.015180000000000001
sg40
F17.19087710298799
sg41
F-1.7752789684409529
sg42
F3.6443244238926633
sbag1
(g8
g3
NtRp291
(dp292
g11
F32.034920700522179
sg12
F110.37250558761772
sg13
F0.89480000000000004
sg14
S'J1713+0747'
p293
sg16
F0.024330000000000001
sg17
F6.6345126076353003
sg18
F0.0045701365275817949
sg19
F663.89999999999998
sg20
F539.24830424747938
sg21
F15.991845999999999
sg22
(dp294
S'CHIME'
p295
(dp296
g26
g27
(g29
S'\x96\xb7]e\xd3P\xe4?'
tRp297
sg31
g27
(g29
S'\x83\xdb\x06y\x1b\xf9\xcb?'
tRp298
sg33
g27
(g29
S'\xfc\xccVU\x16\xc0\x86?'
tRp299
sg35
g27
(g29
S'xE\x15\x85\x05\xdb\xcb?'
tRp300
sg37
g27
(g29
S'\x9e\xde\r\x91\x07P\xe4?'
tRp301
sssg39
F0.0075899999999999987
sg40
F7.7944363977076305
sg41
F-0.83468786319584443
sg42
F6.1904567158010391
sbag1
(g8
g3
NtRp302
(dp303
g11
F113.3115063703607
sg12
F338.60744050340872
sg13
F0.56799999999999995
sg14
S'J2145-0750'
p304
sg16
F0.003153
sg17
F8.8027431007922878
sg18
F0.01605242367131449
sg19
F1469
sg20
F1825.1133381020568
sg21
F9.0019279999999995
sg22
(dp305
S'CHIME'
p306
(dp307
g26
g27
(g29
S'c\x04c4\x17c\xf2?'
tRp308
sg31
g27
(g29
S'\x18c8\x8b\x06\xb6\xd7?'
tRp309
sg33
g27
(g29
S'\xc0\x13\xd9\xc8\x88\xec\x93?'
tRp310
sg35
g27
(g29
S'\xd8\xa0\xe5N\x96\x81\xd6?'
tRp311
sg37
g27
(g29
S'\xd4\x0bNzjb\xf2?'
tRp312
sssg39
F0.058560000000000001
sg40
F-7.8374828003868249
sg41
F-2.0407740375498524
sg42
F4.3726575978476072
sbag1
(g8
g3
NtRp313
(dp314
g11
F26.697582429066809
sg12
F311.84371205995495
sg13
F0.79359999999999997
sg14
S'J2322+2057'
p315
sg16
F0.005947
sg17
F0.47284666962138971
sg18
F0.004808428211204965
sg19
F1264
sg20
F476.88197325538482
sg21
F13.383954999999998
sg22
(dp316
S'CHIME'
p317
(dp318
g26
g27
(g29
S'\xd8O\xd4\xd3\x99\x93\x11@'
tRp319
sg31
g27
(g29
S'f\xa0\xec\xaa\xf9\xfd\xf6?'
tRp320
sg33
g27
(g29
S'\xa0f\xf6\x98\xcf\x1e\x93?'
tRp321
sg35
g27
(g29
S'b\xc7\xd9\x91\x9e\xfd\xf6?'
tRp322
sg37
g27
(g29
S'Jdsm\x8f\x93\x11@'
tRp323
sssg39
F0.031040000000000002
sg40
F20.950797597111109
sg41
F-1.5572802449498797
sg42
F4.1403306496511476
sbag1
(g8
g3
NtRp324
(dp325
g11
F58.321240283030043
sg12
F129.06967133008973
sg13
F0.4899
sg14
S'J0636+5128'
p326
sg16
F0.01133
sg17
F1.4362999675990875
sg18
F0.002868952846534217
sg19
F719.79999999999995
sg20
F460.22251070499482
sg21
F11.103667
sg22
(dp327
S'CHIME'
p328
(dp329
g26
g27
(g29
S'\x8c\xaf\xb9h\xfc_\xdd?'
tRp330
sg31
g27
(g29
S'2\xe462\xa3\x93\xc2?'
tRp331
sg33
g27
(g29
S'\x8d\xd5\xfb}\x19\x9a\x88?'
tRp332
sg35
g27
(g29
S'uL\\\x1aUz\xc2?'
tRp333
sg37
g27
(g29
S'\xfd\x02\xc2\xf3h]\xdd?'
tRp334
sssg39
F0.016289999999999999
sg40
F51.483538514272851
sg41
F-1.7023436375153926
sg42
F6.6449735780842678
sbag1
(g8
g3
NtRp335
(dp336
g11
F402.25332236363113
sg12
F638.49733708512883
sg13
F1.4498
sg14
S'J0509+0856'
p337
sg16
F0.14660000000000001
sg17
F2.428701261287757
sg18
F0.0040558382314362772
sg19
F344.30000000000001
sg20
F888.70655021526034
sg21
F38.327064
sg22
(dp338
S'CHIME'
p339
(dp340
g26
g27
(g29
S'\xead\xd2\xdd\xa7j\x10@'
tRp341
sg31
g27
(g29
S'\x9ahH\x11g\xaf\xf4?'
tRp342
sg33
g27
(g29
S'\x02^_p\x03\\\x9b?'
tRp343
sg35
g27
(g29
S'\xbd\xb2\x1e\xc1\x0bg\xf4?'
tRp344
sg37
g27
(g29
S'\xfd\x15m\x11\x91j\x10@'
tRp345
sssg39
F0.0012600000000000001
sg40
F8.9402873791666675
sg41
F-1.4321881378181067
sg42
F2.3173795287562973
sbag1
(g8
g3
NtRp346
(dp347
g11
F26.192315946162356
sg12
F41.575104676448177
sg13
F0.85640000000000005
sg14
S'J0154+1833'
p348
sg16
F0.033030000000000004
sg17
F0.31166879567032169
sg18
F0.002364569776304132
sg19
F557.39999999999998
sg20
F255.33398954148376
sg21
F19.798873
sg22
(dp349
S'CHIME'
p350
(dp351
g26
g27
(g29
S'\xce\xd4q\x1eVR\xfa?'
tRp352
sg31
g27
(g29
S'\xcfHw\xb9\xff\x1d\xde?'
tRp353
sg33
g27
(g29
S'\xc6o2\xec\xfa\xec{?'
tRp354
sg35
g27
(g29
S'\xb6]\xccd\xa3\x18\xde?'
tRp355
sg37
g27
(g29
S'\x7f\x92\x1aNGR\xfa?'
tRp356
sssg39
F0.0055890000000000002
sg40
F18.564099888138891
sg41
F-2.3784983184709416
sg42
F6.4244288278794492
sbag1
(g8
g3
NtRp357
(dp358
g11
F105.7604489025952
sg12
F195.43477379626884
sg13
F6.3647999999999998
sg14
S'J1903+0327'
p359
sg16
F1410
sg17
F0.84855443377463469
sg18
F0.0021499123330577211
sg19
F7.3540000000000001
sg20
F406.58572244275899
sg21
F297.50621100000001
sg22
(dp360
S'CHIME'
p361
(dp362
g26
g27
(g29
S'\xbd\xfd\xb0\xd4m3\xb8@'
tRp363
sg31
g27
(g29
S'\xff\xd3\xf9\x13\x1e|F@'
tRp364
sg33
g27
(g29
S'\xab\x11\xe1\xa4\xf0E\x8e?'
tRp365
sg35
g27
(g29
S';i\x96\xa7\x01|F@'
tRp366
sg37
g27
(g29
S'\x00\xb2\xb0\xd4m3\xb8@'
tRp367
sssg39
F1.3089999999999999e-07
sg40
F3.4557023816690005
sg41
F-0.79222546070841549
sg42
F5.4308220838718935
sbag1
(g8
g3
NtRp368
(dp369
g11
F10.823427122139297
sg12
F117.86448172999944
sg13
F0.69999999999999996
sg14
S'J0645+5158'
p370
sg16
F0.036450000000000003
sg17
F0.57935424703226368
sg18
F0.0088534966862976877
sg19
F479.69999999999999
sg20
F622.22619669423
sg21
F18.247520000000002
sg22
(dp371
S'CHIME'
p372
(dp373
g26
g27
(g29
S'\x0f3\xf0\xc6\xcev\xff?'
tRp374
sg31
g27
(g29
S'\x94#p\x1e\x90\n\xe5?'
tRp375
sg33
g27
(g29
S'\xdf\x95z=\x82\x82\x87?'
tRp376
sg35
g27
(g29
S'F\x1cl\x842\n\xe5?'
tRp377
sg37
g27
(g29
S'\xd2\x07\xde\xa4\xabv\xff?'
tRp378
sssg39
F0.0050639999999999999
sg40
F51.971218367427362
sg41
F-1.3326838343800058
sg42
F6.1056981475884404
sbag1
(g8
g3
NtRp379
(dp380
g11
F24.910988174185253
sg12
F63.989472199925281
sg13
F1.5752999999999999
sg14
S'J2017+0603'
p381
sg16
F0.022450000000000001
sg17
F0.27904201304653353
sg18
F0.0028962158167230218
sg19
F916.89999999999998
sg20
F242.44848896871653
sg21
F23.923517999999998
sg22
(dp382
S'CHIME'
p383
(dp384
g26
g27
(g29
S'\x94\xc2\x1d\x11\x93+-@'
tRp385
sg31
g27
(g29
S'*x\xa7t\x19\x98\x15@'
tRp386
sg33
g27
(g29
S'\x9b\x1an]\x92R\x81?'
tRp387
sg35
g27
(g29
S'\x8c^\x9f\xe5\x14\x98\x15@'
tRp388
sg37
g27
(g29
S'L8\xd2\xbe\x92+-@'
tRp389
sssg39
F0.0082220000000000001
sg40
F6.051704732035506
sg41
F0
sg42
F3.3198832663573925
sbag1
(g8
g3
NtRp390
(dp391
g11
F196.59058405381859
sg12
F145.84932790145118
sg13
F1.6343000000000001
sg14
S'J1923+2515'
p392
sg16
F0.010189999999999999
sg17
F0.60516350719640755
sg18
F0.0037881555206550821
sg19
F1387
sg20
F534.4780116044368
sg21
F18.857215
sg22
(dp393
S'CHIME'
p394
(dp395
g26
g27
(g29
S'\x85\xf6j\x18-\x05\x0c@'
tRp396
sg31
g27
(g29
S'\xf0Z\xe1\xb9K\xe6\xf2?'
tRp397
sg33
g27
(g29
S'\x97\xd5\xe1E\xfc&\x8a?'
tRp398
sg35
g27
(g29
S'a\x1f\x8eD4\xd6\xf2?'
tRp399
sg37
g27
(g29
S'\xd12\x12\xe4 \x05\x0c@'
tRp400
sssg39
F0.018119999999999997
sg40
F25.261170319522385
sg41
F-1.7135234381458309
sg42
F5.0112431169847502
sbag1
(g8
g3
NtRp401
(dp402
g11
F53.011253494780256
sg12
F84.144846817111528
sg13
F2.9348000000000001
sg14
S'J0557+1551'
p403
sg16
F4.8300000000000001
sg17
F0.062583766473242403
sg18
F0.002556367076782876
sg19
F85.329999999999998
sg20
F345.69690759718213
sg21
F102.581
sg22
(dp404
S'CHIME'
p405
(dp406
g26
g27
(g29
S'\x8b\xc5uui\xf0M@'
tRp407
sg31
g27
(g29
S'\x86\xbb\x96MH\xa50@'
tRp408
sg33
g27
(g29
S'ApJ\xa0<\xdd\x83?'
tRp409
sg35
g27
(g29
S'Y\x8a\x02\xc0C\xa50@'
tRp410
sg37
g27
(g29
S'\x16\xc7\xdeni\xf0M@'
tRp411
sssg39
F3.8220000000000003e-05
sg40
F15.835012268333333
sg41
F0
sg42
F6.4290669638272417
sbag1
(g8
g3
NtRp412
(dp413
g11
F25.1091735834367
sg12
F39.855831084820146
sg13
F1.6546000000000001
sg14
S'J1705-1903'
p414
sg16
F0.76180000000000003
sg17
F0.87113293623427324
sg18
F0.0024802912990134107
sg19
F161.30000000000001
sg20
F227.56790819864091
sg21
F57.491329
sg22
(dp415
S'CHIME'
p416
(dp417
g26
g27
(g29
S'p\xedy\xb8\xb1\xe6\x1d@'
tRp418
sg31
g27
(g29
S'\xa3\x0c\xf5w=/\xef?'
tRp419
sg33
g27
(g29
S'\x84l\xb2!\x9aW{?'
tRp420
sg35
g27
(g29
S'h\xd1\xbb\xbe\x0f,\xef?'
tRp421
sg37
g27
(g29
S'MUu\xf0\xb0\xe6\x1d@'
tRp422
sssg39
F0.00024230000000000001
sg40
F-19.061847463630095
sg41
F-0.9631545648867309
sg42
F7.7255260952451126
sbag1
(g8
g3
NtRp423
(dp424
g11
F131.67882199744793
sg12
F504.66270860867553
sg13
F0.31830000000000003
sg14
S'J0030+0451'
p425
sg16
F0.0003412
sg17
F1.982121147634708
sg18
F0.0048654532112550773
sg19
F3344
sg20
F540.89238432008472
sg21
F4.3328670000000002
sg22
(dp426
S'CHIME'
p427
(dp428
g26
g27
(g29
S'\xfe\xacx\x0fN\xc4\xfc?'
tRp429
sg31
g27
(g29
S'^\xeb\xb0\x86\xbe]\xe3?'
tRp430
sg33
g27
(g29
S'\x95\xe4Z<\xd8R\x98?'
tRp431
sg35
g27
(g29
S'\xa0\xb6s\xe9>6\xe3?'
tRp432
sg37
g27
(g29
S'A\xf4\x0e\x85\xa9\xc3\xfc?'
tRp433
sssg39
F0.54110000000000003
sg40
F4.8609614624557738
sg41
F-1.3701695310372546
sg42
F3.8408396855254265
sbag1
(g8
g3
NtRp434
(dp435
g11
F25.243741839120982
sg12
F152.22701083682438
sg13
F0.82679999999999998
sg14
S'J2317+1439'
p436
sg16
F0.011479999999999999
sg17
F0.95983822282724396
sg18
F0.0034452510722190769
sg19
F929
sg20
F376.48413878136012
sg21
F21.898938000000001
sg22
(dp437
S'CHIME'
p438
(dp439
g26
g27
(g29
S'\xb6\x8b\xa0D5a\xee?'
tRp440
sg31
g27
(g29
S'\xde\x16\x87\xbc\xc1\xbe\xd1?'
tRp441
sg33
g27
(g29
S'\x93\x87\xa7N\xcc\xb7\x8a?'
tRp442
sg35
g27
(g29
S'E!Q\xdb\xdc\xb7\xd1?'
tRp443
sg37
g27
(g29
S'\xbc\x0bWGy`\xee?'
tRp444
sssg39
F0.016079999999999997
sg40
F14.657718648889873
sg41
F-2.3181408168859847
sg42
F5.5472589662366163
sbag1
(g8
g3
NtRp445
(dp446
g11
F448.65955800306818
sg12
F712.15802857629865
sg13
F0.4763
sg14
S'J1327+3423'
p447
sg16
F0.00046280000000000003
sg17
F0.82683458768414597
sg18
F0.041512709726315794
sg19
F3512
sg20
F4156.5984831618516
sg21
F4.1837679999999997
sg22
(dp448
S'CHIME'
p449
(dp450
g26
g27
(g29
S'\xd8\xd2\x99)LN%@'
tRp451
sg31
g27
(g29
S'\xf4I\xef\x00\xdd\xb5\x0b@'
tRp452
sg33
g27
(g29
S'\xdcm$\xf9\xff\xe4\x9c?'
tRp453
sg35
g27
(g29
S'i\x84\x8c\xff\xd9*\x0b@'
tRp454
sg37
g27
(g29
S'"p\xa4CGN%@'
tRp455
sssg39
F0.39899999999999997
sg40
F34.393789008416675
sg41
F-1.67880705728968
sg42
F6.6785960559291873
sbag1
(g8
g3
NtRp456
(dp457
g11
F40.146719782846276
sg12
F233.19375250317131
sg13
F1.0044999999999999
sg14
S'J2234+0944'
p458
sg16
F0.019880000000000002
sg17
F1.2704368894976776
sg18
F0.0036270278952670672
sg19
F778.20000000000005
sg20
F549.9267109179458
sg21
F17.831987999999999
sg22
(dp459
S'CHIME'
p460
(dp461
g26
g27
(g29
S'\xee\xf0[\xdcf\x18\x0f@'
tRp462
sg31
g27
(g29
S'\xc1\xc0\x93\xc5\xce!\xf6?'
tRp463
sg33
g27
(g29
S'\t.\xc5#\xc8\x88\x90?'
tRp464
sg35
g27
(g29
S'R\xc7|\xed\x18!\xf6?'
tRp465
sg37
g27
(g29
S'\x85\xcb\xf2FU\x18\x0f@'
tRp466
sssg39
F0.0092879999999999994
sg40
F9.7413109260183592
sg41
F-0.74125338586630185
sg42
F3.6198637492800336
sbag1
(g8
g3
NtRp467
(dp468
g11
F170.01188785373998
sg12
F269.86013945038087
sg13
F1.2577
sg14
S'J1745+1017'
p469
sg16
F0.049119999999999997
sg17
F1.0766514097897897
sg18
F0.0026521296299683553
sg19
F553.89999999999998
sg20
F343.05281172139837
sg21
F23.971116000000002
sg22
(dp470
S'CHIME'
p471
(dp472
g26
g27
(g29
S'\x12=Px\x125\x01@'
tRp473
sg31
g27
(g29
S']\xcd^8\x91\xf5\xe7?'
tRp474
sg33
g27
(g29
S'\xc4\xce+\x10i\xc9\x91?'
tRp475
sg35
g27
(g29
S'a=\xb1\x8d\xd9\xd6\xe7?'
tRp476
sg37
g27
(g29
S'\x0b\x17\xac\xb2\xed4\x01@'
tRp477
sssg39
F0.0037579999999999996
sg40
F10.297922533333333
sg41
F-1.1958185584778889
sg42
F5.0576098722357239
sbag1
(g8
g3
NtRp478
(dp479
g11
F27.878013459439543
sg12
F220.35143555043584
sg13
F1.1607000000000001
sg14
S'J1640+2224'
p480
sg16
F0.03449
sg17
F1.0873745755002406
sg18
F0.0031633158188016969
sg19
F635.10000000000002
sg20
F465.0740662002172
sg21
F18.427823
sg22
(dp481
S'CHIME'
p482
(dp483
g26
g27
(g29
S'\x1f*>\x0c\x1a\xd9\xf1?'
tRp484
sg31
g27
(g29
S'\x9b\x19\xa1\x0bA\x18\xd5?'
tRp485
sg33
g27
(g29
S'ev\xd0!\x94\x12\x90?'
tRp486
sg35
g27
(g29
S'\x074\x7fp\xd3\x0f\xd5?'
tRp487
sg37
g27
(g29
S'o\xc9\x9c@\xa6\xd8\xf1?'
tRp488
sssg39
F0.0053540000000000003
sg40
F22.403916756275887
sg41
F-2.0257336892224931
sg42
F6.2356346956364535
sbag1
(g8
g3
NtRp489
(dp490
g11
F38.271172166421984
sg12
F88.74355803863692
sg13
F2.0699000000000001
sg14
S'J1911+1347'
p491
sg16
F0.029829999999999999
sg17
F1.1671319236098356
sg18
F0.0046259624708794465
sg19
F911.79999999999995
sg20
F463.4842844120729
sg21
F30.981503999999997
sg22
(dp492
S'CHIME'
p493
(dp494
g26
g27
(g29
S'\xbf]\xf3\xdeX\xea\x07@'
tRp495
sg31
g27
(g29
S'qdYg\xb1C\xf1?'
tRp496
sg33
g27
(g29
S'\xa3\xeb\xf9.Yf\x84?'
tRp497
sg35
g27
(g29
S'\xc1@ET\x95B\xf1?'
tRp498
sg37
g27
(g29
S'Zf\x9e+P\xea\x07@'
tRp499
sssg39
F0.0061879999999999999
sg40
F13.793079004743594
sg41
F-1.3542112400003126
sg42
F5.5134273247158871
sbag1
(g8
g3
NtRp500
(dp501
g11
F117.00632835921827
sg12
F185.72433072891792
sg13
F3.5503999999999998
sg14
S'J0610-2100'
p502
sg16
F0.29420000000000002
sg17
F1.3222365893933763
sg18
F0.0038613247042986248
sg19
F380.30000000000001
sg20
F577.41697245701562
sg21
F60.666200000000003
sg22
(dp503
S'CHIME'
p504
(dp505
g26
g27
(g29
S'\xfft\xd5\x06\x03\x0e\x16@'
tRp506
sg31
g27
(g29
S'Z8gA\xef\xeb\xf7?'
tRp507
sg33
g27
(g29
S'#\xf0z6\xf4\x82\x8d?'
tRp508
sg35
g27
(g29
S'r\x96\xd2U\xfb\xe5\xf7?'
tRp509
sg37
g27
(g29
S'\x0c\xba*\x17\xfe\r\x16@'
tRp510
sssg39
F0.00062760000000000008
sg40
F-21.007782166666665
sg41
F-1.4564224522254441
sg42
F4.7090806871234117
sbag1
(g8
g3
NtRp511
(dp512
g11
F57.31308440796132
sg12
F47.811995766800344
sg13
F1.1124000000000001
sg14
S'J1832-0836'
p513
sg16
F0.10589999999999999
sg17
F2.2051546346605804
sg18
F0.0027191120208218521
sg19
F354.80000000000001
sg20
F188.3800258749348
sg21
F28.19330200000001
sg22
(dp514
S'CHIME'
p515
(dp516
g26
g27
(g29
S"\xd43\xb9'\xffT\x05@"
tRp517
sg31
g27
(g29
S'S\xcbp\xd96@\xec?'
tRp518
sg33
g27
(g29
S'\x95\x80\xbf.z\xf2}?'
tRp519
sg35
g27
(g29
S'Q\xbew\xcb@<\xec?'
tRp520
sg37
g27
(g29
S'\xc6Lc\xe6\xf9T\x05@'
tRp521
sssg39
F0.0017430000000000002
sg40
F-8.6149009703153343
sg41
F-2.2336966934673481
sg42
F3.0613748766488182
sbag1
(g8
g3
NtRp522
(dp523
g11
F59.443996334398939
sg12
F94.355549737141146
sg13
F2.6897000000000002
sg14
S'J1803+1358'
p524
sg16
F0.38140000000000002
sg17
F1.037126954159284
sg18
F0.0015236748460567384
sg19
F290.69999999999999
sg20
F175.99282702438512
sg21
F59.156268999999995
sg22
(dp525
S'CHIME'
p526
(dp527
g26
g27
(g29
S'D\xd0\x82tl\x0e\x13@'
tRp528
sg31
g27
(g29
S'\xe8\x8c\x17\\\xcb\x13\xc8?'
tRp529
sg33
g27
(g29
S'\x01o\xcb\x84\xf1\x08\x85?'
tRp530
sg35
g27
(g29
S'\x02`r}ga\xc7?'
tRp531
sg37
g27
(g29
S'\xb7\xd9\x80\x8di\x0e\x13@'
tRp532
sssg39
F0.000484
sg40
F13.972625610583336
sg41
F-3.063273897135212
sg42
F2.9300533644620206
sbag1
(g8
g3
NtRp533
(dp534
g11
F265.03666846306703
sg12
F213.02325001831608
sg13
F1.7317
sg14
S'J0340+4130'
p535
sg16
F0.29370000000000002
sg17
F1.0100441473898387
sg18
F0.003299339366491248
sg19
F265.80000000000001
sg20
F513.21968154550939
sg21
F49.575848000000001
sg22
(dp536
S'CHIME'
p537
(dp538
g26
g27
(g29
S'\x93\xf2>\x88\xb5\xc6\n@'
tRp539
sg31
g27
(g29
S'\xbf\x90uoA\x95\xd4?'
tRp540
sg33
g27
(g29
S'T\x1b?\x9a)\x9b\x8f?'
tRp541
sg35
g27
(g29
S']\x00k\x8f\x0e\xf5\xd3?'
tRp542
sg37
g27
(g29
S'Q\x90\xe5\xe0\xa2\xc6\n@'
tRp543
sssg39
F0.0006286000000000001
sg40
F41.510214480144931
sg41
F-1.8610158921183624
sg42
F5.1133804443832176
sbag1
(g8
g3
NtRp544
(dp545
g11
F234.4852247901855
sg12
F372.19876950823095
sg13
F0.52780000000000005
sg14
S'J1730-2304'
p546
sg16
F0.0092770000000000005
sg17
F6.0049640015458454
sg18
F0.0081227979201426836
sg19
F825.70000000000005
sg20
F884.80461659729281
sg21
F9.6163399999999992
sg22
(dp547
S'CHIME'
p548
(dp549
g26
g27
(g29
S'p\x17R\xc5l\x11\x01@'
tRp550
sg31
g27
(g29
S'\xaf\rt\xf8\xac\x0e\xe8?'
tRp551
sg33
g27
(g29
S'\x8e\xe4E\xeb\x8c\xe3\x94?'
tRp552
sg35
g27
(g29
S'\xfbp$\x10+n\xe7?'
tRp553
sg37
g27
(g29
S'C\xce\xbf\xa39\x11\x01@'
tRp554
sssg39
F0.019900000000000001
sg40
F-23.075334946944452
sg41
F-1.9554770437621816
sg42
F5.3132952758455296
sbag1
(g8
g3
NtRp555
(dp556
g11
F8.1569719024261325
sg12
F200.95602335961203
sg13
F0.68669999999999998
sg14
S'J0023+0923'
p557
sg16
F0.014749999999999999
sg17
F0.61299221333122322
sg18
F0.003050203104480077
sg19
F746.89999999999998
sg20
F430.17142665958221
sg21
F14.326224
sg22
(dp558
S'CHIME'
p559
(dp560
g26
g27
(g29
S'u\x84\xf2\x9e8D\x04@'
tRp561
sg31
g27
(g29
S'[\xbb\xa8W\xf1%\xea?'
tRp562
sg33
g27
(g29
S'a\xfc\xf6W\xa6\xb2\x8e?'
tRp563
sg35
g27
(g29
S'P\x8cVE\x80%\xea?'
tRp564
sg37
g27
(g29
S'%\xab\x1b_!D\x04@'
tRp565
sssg39
F0.01252
sg40
F9.3894380561320876
sg41
F-1.6655730185661424
sg42
F5.6264769332758631
sbag1
(g8
g3
NtRp566
(dp567
g11
F92.737545866848222
sg12
F147.20245375690197
sg13
F2.5106000000000002
sg14
S'J1012-4235'
p568
sg16
F0.57609999999999995
sg17
F0.59919705823318159
sg18
F0.003101141245618947
sg19
F228.5
sg20
F463.85624669836011
sg21
F71.662998153457792
sg22
(dp569
S'CHIME'
p570
(dp571
g26
I-2
sg31
I-2
sg33
I-2
sg35
I-2
sg37
I-2
sssg39
F0.00032040000000000004
sg40
F-42.598176466666672
sg41
F-0.3647062158422647
sg42
F6.1036556705021541
sbag1
(g8
g3
NtRp572
(dp573
g11
F47.011806625268896
sg12
F273.65777838861982
sg13
F1.7077
sg14
S'J0613-0200'
p574
sg16
F0.096680000000000002
sg17
F4.2779241124400764
sg18
F0.0030618440409622503
sg19
F460.10000000000002
sg20
F331.91720527703825
sg21
F38.777469000000004
sg22
(dp575
S'CHIME'
p576
(dp577
g26
g27
(g29
S'\x9b\xd73\xa5i[\xf2?'
tRp578
sg31
g27
(g29
S'\xec\xf13\xed\x87\xcc\xbd?'
tRp579
sg33
g27
(g29
S'\xb9\xc1\xe3qV\xe9\x91?'
tRp580
sg35
g27
(g29
S'\x14\x05\x8f\xb4\x1d\xc4\xbc?'
tRp581
sg37
g27
(g29
S'\xbaJ\xde\xd2\xddZ\xf2?'
tRp582
sssg39
F0.0019100000000000002
sg40
F-2.0126818112952685
sg41
F-2.0172264753214741
sg42
F4.6745796638202171
sbag1
(g8
g3
NtRp583
(dp584
g11
F957.28085330025681
sg12
F98.218847780318256
sg13
F3.3654000000000002
sg14
S'J1747-4036'
p585
sg16
F13.98
sg17
F3.9688750407801621
sg18
F0.0016456096144920427
sg19
F53.719999999999999
sg20
F277.45276434336182
sg21
F152.95643700000005
sg22
(dp586
S'CHIME'
p587
(dp588
g26
I-2
sg31
I-2
sg33
I-2
sg35
I-2
sg37
I-2
sssg39
F1.3210000000000001e-05
sg40
F-40.615720358051867
sg41
F-2.7186453255532834
sg42
F2.1838133573670762
sbag1
(g8
g3
NtRp589
(dp590
g11
F26.04354641229061
sg12
F584.05491710699346
sg13
F0.4113
sg14
S'J1012+5307'
p591
sg16
F0.0071450000000000003
sg17
F5.1490790932489947
sg18
F0.0052557490209093989
sg19
F830.60000000000002
sg20
F637.30762520202381
sg21
F9.0214449999999999
sg22
(dp592
S'CHIME'
p593
(dp594
g26
g27
(g29
S'p\xbb\x8f\xb8\xf3\x9e\xd3?'
tRp595
sg31
g27
(g29
S')\xb4*\xffh\xa8\xb8?'
tRp596
sg33
g27
(g29
S'*j\xd6\xf6\xc1*\x9a?'
tRp597
sg35
g27
(g29
S'\x87\x8dJ\xa0:\x8c\xb8?'
tRp598
sg37
g27
(g29
S'\x95F\xca\x1ay\x8d\xd3?'
tRp599
sssg39
F0.025839999999999998
sg40
F53.121261516135299
sg41
F-1.5272828748547915
sg42
F3.6807325390546266
sbag1
(g8
g3
NtRp600
(dp601
g11
F124.66785739647949
sg12
F480.82554756315682
sg13
F0.63280000000000003
sg14
S'J1125+7819'
p602
sg16
F0.0073140000000000002
sg17
F1.6145035356025634
sg18
F0.0042016091181073904
sg19
F1018
sg20
F659.92729460541523
sg21
F11.217125999999999
sg22
(dp603
S'CHIME'
p604
(dp605
g26
g27
(g29
S'Cb\x9d\xd6\xc6\xa3\xd9?'
tRp606
sg31
g27
(g29
S'\x1a8\xc456\xaa\xc0?'
tRp607
sg33
g27
(g29
S'2\x0c\xbc\xc7\x01\xbe\x97?'
tRp608
sg35
g27
(g29
S' zkm\x14\\\xc0?'
tRp609
sg37
g27
(g29
S'\xe91Ob\xc6\x98\xd9?'
tRp610
sssg39
F0.025240000000000002
sg40
F78.335653191646188
sg41
F-1.9774501634733801
sg42
F5.4162088382144331
sbag1
(g8
g3
NtRp611
(dp612
g11
F330.3819930946413
sg12
F224.25406933044769
sg13
F4.6406999999999998
sg14
S'B1953+29'
p613
sg16
F1.411
sg17
F1.7324616794930965
sg18
F0.0061331665155521364
sg19
F198.5
sg20
F824.38672566517243
sg21
F104.500361
sg22
(dp614
S'CHIME'
p615
(dp616
g26
g27
(g29
S'\x00\xb8v\x83\xc5\xee-@'
tRp617
sg31
g27
(g29
S'] ]\xd0\xfa\xe3\xee?'
tRp618
sg33
g27
(g29
S'\xaf\x99X\xf3\xda6\x90?'
tRp619
sg35
g27
(g29
S'\x08\x8d\x00\xce\xa7,\xee?'
tRp620
sg37
g27
(g29
S'\xf4Jgj\xc4\xee-@'
tRp621
sssg39
F0.00013080000000000001
sg40
F29.144834417339428
sg41
F-2.0471388886909416
sg42
F3.3459827683208503
sbag1
(g8
g3
NtRp622
(dp623
g11
F68.907674696351179
sg12
F109.37726142277964
sg13
F1.7736000000000001
sg14
S'J1811-2405'
p624
sg16
F2.0089999999999999
sg17
F2.9222937986964501
sg18
F0.0026605932755822031
sg19
F102.90000000000001
sg20
F312.29073020773251
sg21
F60.623032999999992
sg22
(dp625
S'CHIME'
p626
(dp627
g26
g27
(g29
S'*w_\x8c\xe8r3@'
tRp628
sg31
g27
(g29
S'\xfc\xb3?TT\x17\x02@'
tRp629
sg33
g27
(g29
S'\xa4,s\xfc\xc4\xa5\x86?'
tRp630
sg35
g27
(g29
S'\xd2>\xa96t\x16\x02@'
tRp631
sg37
g27
(g29
S'\x8a\xda\xa0W\xe8r3@'
tRp632
sssg39
F9.1910000000000006e-05
sg40
F-24.088433411305555
sg41
F-1.8845950882441789
sg42
F2.5395083192537267
sbag1
(g8
g3
NtRp633
(dp634
g11
F83.457158632189802
sg12
F132.47168036855521
sg13
F1.1047
sg14
S'J1751-2857'
p635
sg16
F0.3836
sg17
F1.4138394825546985
sg18
F0.0039148731963689655
sg19
F185.80000000000001
sg20
F545.40542069978062
sg21
F42.808
sg22
(dp636
S'CHIME'
p637
(dp638
g26
g27
(g29
S'\xf2P\xc5=\x0cG,@'
tRp639
sg31
g27
(g29
S'\xb5\x83\x97}\xbb\x91\x13@'
tRp640
sg33
g27
(g29
S'\x9d\x83E\xe9\x8f\xec\x88?'
tRp641
sg35
g27
(g29
S'\xc8Y\xe9\xa2\x82\x91\x13@'
tRp642
sg37
g27
(g29
S'\x10:\x06\x8e\x0bG,@'
tRp643
sssg39
F0.00048129999999999999
sg40
F-28.962916666666665
sg41
F-2.2194598134151833
sg42
F6.1800270227660175
sbag1
(g8
g3
NtRp644
(dp645
g11
F380.96837791388742
sg12
F230.79673696054471
sg13
F2.0004
sg14
S'J2033+1734'
p646
sg16
F0.017569999999999999
sg17
F0.62603232127376518
sg18
F0.0059489575403285531
sg19
F1168
sg20
F861.432654548649
sg21
F25.087691
sg22
(dp647
S'CHIME'
p648
(dp649
g26
g27
(g29
S'\xa2\x95\xe9\x85r\x96\x10@'
tRp650
sg31
g27
(g29
S'\xe5\xae\x92\x02\xaa&\xf5?'
tRp651
sg33
g27
(g29
S'P4\xd1\x97\xf8r\x90?'
tRp652
sg35
g27
(g29
S'p]\x92\x87(\xd0\xf4?'
tRp653
sg37
g27
(g29
S'\xa9O\x02^j\x96\x10@'
tRp654
sssg39
F0.01051
sg40
F17.582466548082053
sg41
F-1.9944617485830969
sg42
F5.4004047434881022
sbag1
(g8
g3
NtRp655
(dp656
g11
F41.782361027362498
sg12
F66.321207979940468
sg13
F1.6942999999999999
sg14
S'J1843-1113'
p657
sg16
F1.046
sg17
F1.1168140577300756
sg18
F0.0018456662924245528
sg19
F139.30000000000001
sg20
F253.21766621354752
sg21
F59.960000000000001
sg22
(dp658
S'CHIME'
p659
(dp660
g26
g27
(g29
S'\xfc\x8f:!\x85]$@'
tRp661
sg31
g27
(g29
S'\x8c[\xd5\x19\xe7\xa7\xed?'
tRp662
sg33
g27
(g29
S'\x85\x1eD2\xa5\xa2\x81?'
tRp663
sg35
g27
(g29
S'\xec\xa0\r6\x08\xa3\xed?'
tRp664
sg37
g27
(g29
S'\xa4\xea\x0e\xa7\x84]$@'
tRp665
sssg39
F0.00017660000000000001
sg40
F-11.225292222222222
sg41
F-1.7490769738048202
sg42
F5.8218502745017195
sbag1
(g8
g3
NtRp666
(dp667
g11
F19.625042091363312
sg12
F89.79077095941183
sg13
F0.68089999999999995
sg14
S'J2234+0611'
p668
sg16
F0.0045439999999999994
sg17
F0.44337654030107809
sg18
F0.0035765816319137632
sg19
F1340
sg20
F397.19867094359461
sg21
F10.769483000000001
sg22
(dp669
S'CHIME'
p670
(dp671
g26
g27
(g29
S'\xb5$m\x1d3\r\x12@'
tRp672
sg31
g27
(g29
S'GU\xa6{Xj\xf9?'
tRp673
sg33
g27
(g29
S'\x1d\x84^-\x12\x85\x84?'
tRp674
sg35
g27
(g29
S'\x02S\x12y3j\xf9?'
tRp675
sg37
g27
(g29
S'(\x06\x0230\r\x12@'
tRp676
sssg39
F0.040629999999999999
sg40
F6.1911866819724857
sg41
F-0.87771501039629396
sg42
F6.3388821294621698
sbag1
(g8
g3
NtRp677
(dp678
g11
F270.74211503419383
sg12
F344.2931645782412
sg13
F1.1778999999999999
sg14
S'J2302+4442'
p679
sg16
F0.0049829999999999996
sg17
F2.453237331355985
sg18
F0.0051923246484279258
sg19
F1683
sg20
F645.98881016926475
sg21
F13.724998999999999
sg22
(dp680
S'CHIME'
p681
(dp682
g26
g27
(g29
S'\xb3Uf\x0bB\x08\xf5?'
tRp683
sg31
g27
(g29
S'\xda\x80\xd2\xb9@\xcc\xdc?'
tRp684
sg33
g27
(g29
S'\x18\xdc\r\xc8-\x17\x94?'
tRp685
sg35
g27
(g29
S'\xb5\xf3`|"\x1f\xdc?'
tRp686
sg37
g27
(g29
S'\x18\x1a\x0f\x82\xa8\x07\xf5?'
tRp687
sssg39
F0.03705
sg40
F44.702721450131229
sg41
F-1.5019557909592385
sg42
F2.2357569113076776
sbag1
(g8
g3
NtRp688
(dp689
g11
F12.574177566189125
sg12
F41.037330744290642
sg13
F0.4572
sg14
S'J1909-3744'
p690
sg16
F0.0091389999999999996
sg17
F1.9627258785566213
sg18
F0.0029471080244818748
sg19
F774.20000000000005
sg20
F260.67343390780411
sg21
F10.391601
sg22
(dp691
S'CHIME'
p692
(dp693
g26
I-2
sg31
I-2
sg33
I-2
sg35
I-2
sg37
I-2
sssg39
F0.020199999999999999
sg40
F-37.736554205642975
sg41
F-1.9162813123545903
sg42
F7.3320655961662409
sbag1
(g8
g3
NtRp694
(dp695
g11
F107.16244071864614
sg12
F170.09911225181924
sg13
F2.9330000000000003
sg14
S'J1802-2124'
p696
sg16
F80.019999999999996
sg17
F2.2420827827471368
sg18
F0.012647593586522718
sg19
F20.960000000000001
sg20
F985.57707051420198
sg21
F149.6258
sg22
(dp697
S'CHIME'
p698
(dp699
g26
g27
(g29
S"qMd'e\xab\x82@"
tRp700
sg31
g27
(g29
S"\xb4\x06Y\xea'\xe3\r@"
tRp701
sg33
g27
(g29
S'\xad\x80\xd6>+>\x8c?'
tRp702
sg35
g27
(g29
S'{\x1b\x14\xa8;\xde\r@'
tRp703
sg37
g27
(g29
S"\x9e\xf0N'e\xab\x82@"
tRp704
sssg39
F2.3069999999999997e-06
sg40
F-21.401013611111111
sg41
F-2.3996192247305146
sg42
F7.7246083876094769
sbag1
(g8
g3
NtRp705
(dp706
g11
F59.316084521190497
sg12
F94.152515113000788
sg13
F0.93599999999999994
sg14
S'J1630+3734'
p707
sg16
F0.017430000000000001
sg17
F1.0368327815900795
sg18
F0.0033181121293967891
sg19
F802.20000000000005
sg20
F243.05412511685736
sg21
F14.126382999999999
sg22
(dp708
S'CHIME'
p709
(dp710
g26
g27
(g29
S'\x02v}14\xc9\xf5?'
tRp711
sg31
g27
(g29
S'8\x8b\xb6\x14=E\xdb?'
tRp712
sg33
g27
(g29
S'\x84\xc7P\x8a%\x03\x85?'
tRp713
sg35
g27
(g29
S'\x0f\x1b\x8d\xbb\x8f7\xdb?'
tRp714
sg37
g27
(g29
S' \xe2\x18\xa9\x0b\xc9\xf5?'
tRp715
sssg39
F0.01059
sg40
F37.578360357333352
sg41
F-1.830728043420768
sg42
F2.2583167767745129
sbag1
(g8
g3
NtRp716
(dp717
g11
F16.994900550095466
sg12
F37.006975524259438
sg13
F3.528
sg14
S'B1937+21'
p718
sg16
F0.86819999999999997
sg17
F39.580387663275673
sg18
F0.0015578065398454445
sg19
F220.69999999999999
sg20
F144.86726219152089
sg21
F71.021846999999994
sg22
(dp719
S'CHIME'
p720
(dp721
g26
g27
(g29
S'!7QCzh\x1a@'
tRp722
sg31
g27
(g29
S'\x12\xde>m\xc1\x15\x9d?'
tRp723
sg33
g27
(g29
S'!\xb7\xe9W\xcdXz?'
tRp724
sg35
g27
(g29
S'\x9f\xb6B\\\x8b8p?'
tRp725
sg37
g27
(g29
S'\x08\xe6\x07qyh\x1a@'
tRp726
sssg39
F0.00021259999999999999
sg40
F21.582914203821229
sg41
F-3.1272027872980552
sg42
F3.6367449194684589
sbag1
(g8
g3
NtRp727
(dp728
g11
F72.835568928144099
sg12
F115.61201417165731
sg13
F0.43519999999999998
sg14
S'J0125-2327'
p729
sg16
F0.0062709999999999997
sg17
F2.8094962519386955
sg18
F0.0036753748844617689
sg19
F911.89999999999998
sg20
F468.6424471045828
sg21
F9.5921620000000001
sg22
(dp730
S'CHIME'
p731
(dp732
g26
g27
(g29
S'2\xdb\x8d)\x88)\x06@'
tRp733
sg31
g27
(g29
S'Zt\xea\x02\xf0 \xf0?'
tRp734
sg33
g27
(g29
S'\xb6\x96s\xf6\xb8H\x87?'
tRp735
sg35
g27
(g29
S'\x1bA\xe1\t:\x1e\xf0?'
tRp736
sg37
g27
(g29
S'\x9e\xcfP\xee{)\x06@'
tRp737
sssg39
F0.029439999999999997
sg40
F-23.45227083413889
sg41
F-0.38275683056518939
sg42
F5.6988397132376161
sbag1
(g8
g3
NtRp738
(dp739
g11
F84.307155107573237
sg12
F132.76721352118068
sg13
F2.3214000000000001
sg14
S'J1910+1256'
p740
sg16
F0.0499
sg17
F0.97999999999999998
sg18
F0.0049835839423470465
sg19
F746.60000000000002
sg20
F633.9257405728539
sg21
F38.071005999999997
sg22
(dp741
S'CHIME'
p742
(dp743
g26
g27
(g29
S'\xf2\x8a&\xe9\x81\x0f\x0e@'
tRp744
sg31
g27
(g29
S'\xac,Tcn5\xf5?'
tRp745
sg33
g27
(g29
S'\xaard\xe9\xac\xf3\x88?'
tRp746
sg35
g27
(g29
S'\x8f\x84N\xbdI1\xf5?'
tRp747
sg37
g27
(g29
S'\xdd+\x17\x8ew\x0f\x0e@'
tRp748
sssg39
F0.0037000000000000002
sg40
F12.940630249941485
sg41
F-1.6599999999999999
sg42
F6.226951399635638
sbag1
(g8
g3
NtRp749
(dp750
g11
F197.56454131542691
sg12
F221.27802113746398
sg13
F5.1553000000000004
sg14
S'J1946+3417'
p751
sg16
F1.2770000000000001
sg17
F1.4080747060941383
sg18
F0.0031701391788565162
sg19
F219.90000000000001
sg20
F478.3012882309182
sg21
F110.20933500000001
sg22
(dp752
S'CHIME'
p753
(dp754
g26
g27
(g29
S'\xb35\xbe\x12I#)@'
tRp755
sg31
g27
(g29
S'lV\xb4\xa1\xd6\xa7\xe3?'
tRp756
sg33
g27
(g29
S'\xfb\xf6Ou8\x1b\x90?'
tRp757
sg35
g27
(g29
S'\xc8\x10\x1c\xea\x13l\xe3?'
tRp758
sg37
g27
(g29
S'\x9d\x87\x83\xc8G#)@'
tRp759
sssg39
F0.00014460000000000002
sg40
F34.287413467583328
sg41
F-1.3302251466158934
sg42
F4.4106432970691838
sbag1
(g8
g3
NtRp760
(dp761
g11
F25.896318202881236
sg12
F314.58168469922919
sg13
F2.4171999999999998
sg14
S'J1643-1224'
p762
sg16
F0.53510000000000002
sg17
F8.6439075414744444
sg18
F0.0046216414546000574
sg19
F232.69999999999999
sg20
F976.50668006088199
sg21
F62.404720999999995
sg22
(dp763
S'CHIME'
p764
(dp765
g26
g27
(g29
S'\x02qnk\xb6\xe1\x16@'
tRp766
sg31
g27
(g29
S'\xdc\xdba\x8c\xee\x1e\xd1?'
tRp767
sg33
g27
(g29
S'\xa3\xe7\x91\x87@4\x93?'
tRp768
sg35
g27
(g29
S'\xcf\x10=\x8f\xd4\xf6\xd0?'
tRp769
sg37
g27
(g29
S's\xa4_\\\xae\xe1\x16@'
tRp770
sssg39
F0.00034500000000000004
sg40
F-12.416491104381025
sg41
F-1.8426112327950133
sg42
F5.1551719979160806
sbag1
(g8
g3
NtRp771
(dp772
g11
F101.22853398864058
sg12
F207.18816690002819
sg13
F0.52859999999999996
sg14
S'J1455-3330'
p773
sg16
F0.0056689999999999996
sg17
F1.4810740844716788
sg18
F0.0079872048061043303
sg19
F1057
sg20
F996.90374431130738
sg21
F13.568770000000001
sg22
(dp774
S'CHIME'
p775
(dp776
g26
g27
(g29
S"\xab9\x1f'\xffq.@"
tRp777
sg31
g27
(g29
S'\x01\xf3Ow\xd0\t\x14@'
tRp778
sg33
g27
(g29
S'\x1d\x19`\xd4\x93+\x8f?'
tRp779
sg35
g27
(g29
S'\xef\x89\xf6]U\t\x14@'
tRp780
sg37
g27
(g29
S"\xb4\x97\xd2'\xfeq.@"
tRp781
sssg39
F0.032570000000000002
sg40
F-33.51517225331861
sg41
F-1.7935761793788749
sg42
F5.5172312188987647
sbag1
(g8
g3
NtRp782
(dp783
g11
F48.452538507053568
sg12
F76.908791281037409
sg13
F1.9011
sg14
S'J0614-3329'
p784
sg16
F0.070440000000000003
sg17
F1.4893762435140363
sg18
F0.0031486695792891451
sg19
F568.70000000000005
sg20
F293.15173436052919
sg21
F37.048999999999999
sg22
(dp785
S'CHIME'
p786
(dp787
g26
g27
(g29
S'\x00\xf3\xa4\xc9:\x0e\x14@'
tRp788
sg31
g27
(g29
S'w\x07\xe89\xc1\xec\xf9?'
tRp789
sg33
g27
(g29
S'K/#W\xab\xfd\x82?'
tRp790
sg35
g27
(g29
S'\x04\xb2\xe8k\xd9\xeb\xf9?'
tRp791
sg37
g27
(g29
S'\xfbP2\x8a8\x0e\x14@'
tRp792
sssg39
F0.0026210000000000001
sg40
F-33.49836434511667
sg41
F-1.4317348069204676
sg42
F4.7627312068004244
sbag1
(g8
g3
NtRp793
(dp794
g11
F113.37517226629015
sg12
F437.04081673845292
sg13
F1.4404999999999999
sg14
S'J2229+2643'
p795
sg16
F0.024819999999999998
sg17
F0.86233405685539122
sg18
F0.0029778192957092605
sg19
F834
sg20
F581.44405594081479
sg21
F22.728581999999999
sg22
(dp796
S'CHIME'
p797
(dp798
g26
g27
(g29
S'S=s:~\xf7\xf9?'
tRp799
sg31
g27
(g29
S'\x82\x1e\r\xb4rF\xdf?'
tRp800
sg33
g27
(g29
S'F(\x15\x8d\xaa\xa2\x96?'
tRp801
sg35
g27
(g29
S'\xf1\xba\x8a\xc4Z\x1d\xdf?'
tRp802
sg37
g27
(g29
S'\xc25\x91^\xe0\xf6\xf9?'
tRp803
sssg39
F0.0074390000000000003
sg40
F26.73085633049477
sg41
F-2.1380308476336407
sg42
F5.3993628145196162
sbag1
(g8
g3
NtRp804
(dp805
g11
F103.35942583649796
sg12
F181.03965514086292
sg13
F1.5476000000000001
sg14
S'J2214+3000'
p806
sg16
F0.018630000000000001
sg17
F0.39000000000000001
sg18
F0.003119226580973074
sg19
F997.70000000000005
sg20
F562.6802863628526
sg21
F22.558742000000002
sg22
(dp807
S'CHIME'
p808
(dp809
g26
g27
(g29
S'\xca\xa2L\x03;d(@'
tRp810
sg31
g27
(g29
S'\xe0\xf0\xc4k\xc2\x0e\x12@'
tRp811
sg33
g27
(g29
S'\xbel\x83#\x10#\x8d?'
tRp812
sg35
g27
(g29
S'\xd6\xd8\xe3\x15\x81\x0e\x12@'
tRp813
sg37
g27
(g29
S'\x93\xa7\xda\xec9d(@'
tRp814
sssg39
F0.0099089999999999994
sg40
F30.008634772848488
sg41
F0
sg42
F4.3558991465382766
sbag1
(g8
g3
NtRp815
(dp816
g11
F64.953275908927381
sg12
F83.979666864338554
sg13
F1.2753000000000001
sg14
S'J1614-2230'
p817
sg16
F0.1739
sg17
F1.883198687866156
sg18
F0.0031508076554611769
sg19
F296.39999999999998
sg20
F395.48867869945769
sg21
F34.487811000000001
sg22
(dp818
S'CHIME'
p819
(dp820
g26
g27
(g29
S'\x1ekrU]\xa8\r@'
tRp821
sg31
g27
(g29
S'\x00\x1c\x13\xc8=\xcb\xf1?'
tRp822
sg33
g27
(g29
S'\xcd\x1f\xc7;>\xd8\x83?'
tRp823
sg35
g27
(g29
S'\x03}\xf44\xff\xc8\xf1?'
tRp824
sg37
g27
(g29
S'\x97\xd4\xc8\xb1V\xa8\r@'
tRp825
sssg39
F0.0010610000000000001
sg40
F-22.5096009955802
sg41
F-1.5979374297292224
sg42
F4.0809137704316711
sbag1
(g8
g3
NtRp826
(dp827
g11
F126.32711484683772
sg12
F704.11489348777923
sg13
F0.44990000000000002
sg14
S'J1022+1001'
p828
sg16
F0.0082439999999999996
sg17
F6.1240351250578566
sg18
F0.016452929683202652
sg19
F808.70000000000005
sg20
F1390.0550147832807
sg21
F10.245999999999999
sg22
(dp829
S'CHIME'
p830
(dp831
g26
g27
(g29
S'\xa3\x12\xf2\x7f#\x06\xee?'
tRp832
sg31
g27
(g29
S'Q~\xc8\x99\x1f\xcc\xd5?'
tRp833
sg33
g27
(g29
S'c\xb2@=\x1c\xbb\x9c?'
tRp834
sg35
g27
(g29
S'\xc2\xeaV\xec\x82\x07\xd4?'
tRp835
sg37
g27
(g29
S'\x95\xf8\xba\x82\xb3\x02\xee?'
tRp836
sssg39
F0.02239
sg40
F10.032450540644485
sg41
F-1.0786983698332917
sg42
F6.2040224212044164
sbag1
(g8
g3
NtRp837
(dp838
g11
F31.443309197405505
sg12
F120.47716700357869
sg13
F1.4285000000000001
sg14
S'J1738+0333'
p839
sg16
F0.12479999999999999
sg17
F0.69650717484100277
sg18
F0.0058500957725237009
sg19
F370.30000000000001
sg20
F642.81646626129168
sg21
F33.769562999999998
sg22
(dp840
S'CHIME'
p841
(dp842
g26
g27
(g29
S'\x9c\xc5+\x8f\xc7\x99%@'
tRp843
sg31
g27
(g29
S'\xc1\n\x03\xce\x92\xbb\x0f@'
tRp844
sg33
g27
(g29
S'\x05+\xccM\xd9\xc4\x87?'
tRp845
sg35
g27
(g29
S'^\x96\xc8_i\xbb\x0f@'
tRp846
sg37
g27
(g29
S'#\xad\xee\xbd\xc6\x99%@'
tRp847
sssg39
F0.0014789999999999998
sg40
F3.5535266664263725
sg41
F-0.39414585467864471
sg42
F5.0909841249033514
sbag1
(g8
g3
NtRp848
(dp849
g11
F26.239171930102138
sg12
F70.171634057561221
sg13
F1.6341000000000001
sg14
S'J1600-3053'
p850
sg16
F0.54949999999999999
sg17
F2.931021757268649
sg18
F0.0035979284550047828
sg19
F188.80000000000001
sg20
F424.57996519188094
sg21
F52.324102000000003
sg22
(dp851
S'CHIME'
p852
(dp853
g26
g27
(g29
S'\x05\xd4G\x96\xb2\x1e\x1a@'
tRp854
sg31
g27
(g29
S'\xa3\xd7KfT\xaf\xf9?'
tRp855
sg33
g27
(g29
S'r l\xb0\xd9#\x82?'
tRp856
sg35
g27
(g29
S'HwN\xf5\x8e\xae\xf9?'
tRp857
sg37
g27
(g29
S'\x965$\x03\xb1\x1e\x1a@'
tRp858
sssg39
F0.00033600000000000004
sg40
F-30.898579821453811
sg41
F-0.54492771050814437
sg42
F6.1949933710325666
sbasg14
S'NG15yr'
p859
sb.